(dp1
S'IMG_0379.jpg'
p2
(S'3423008035798740668'
(lp3
S'/mnt/4E443F99443F82AF/Dropbox/PYTHON/RRtools/results/set11/_expert/3423008035798740668'
p4
atp5
sS'IMG_0375.jpg'
p6
(S'7234442128957741168'
(lp7
S'/mnt/4E443F99443F82AF/Dropbox/PYTHON/RRtools/results/set11/_expert/7234442128957741168'
p8
atp9
sS'IMG_0377.jpg'
p10
(S'-8773154281724052526'
(lp11
S'/mnt/4E443F99443F82AF/Dropbox/PYTHON/RRtools/results/set11/_expert/-8773154281724052526'
p12
atp13
sS'IMG_0373.jpg'
p14
(S'998605192278567670'
(lp15
S'/mnt/4E443F99443F82AF/Dropbox/PYTHON/RRtools/results/set11/_expert/998605192278567670'
p16
atp17
sS'IMG_0380.jpg'
p18
(S'4777374746884818204'
p19
(lp20
S'/mnt/4E443F99443F82AF/Dropbox/PYTHON/RRtools/results/set11/_expert/4777374746884818204'
p21
atp22
sS'IMG_0374.jpg'
p23
(S'-2769340076153155267'
(lp24
S'/mnt/4E443F99443F82AF/Dropbox/PYTHON/RRtools/results/set11/_expert/-2769340076153155267'
p25
atp26
s.