(dp1
S'IMG_0406.jpg'
p2
(S'-2347302739583891319'
(lp3
S'/mnt/4E443F99443F82AF/Dropbox/PYTHON/RRtools/results/set2/_expert/-2347302739583891319'
p4
atp5
sS'IMG_0409.jpg'
p6
(S'-4539410850459786094'
(lp7
S'/mnt/4E443F99443F82AF/Dropbox/PYTHON/RRtools/results/set2/_expert/-4539410850459786094'
p8
atp9
sS'IMG_0410.jpg'
p10
(S'-1440105349508142888'
p11
(lp12
S'/mnt/4E443F99443F82AF/Dropbox/PYTHON/RRtools/results/set2/_expert/-1440105349508142888'
p13
atp14
sS'IMG_0407.jpg'
p15
(S'7656495465527005052'
(lp16
S'/mnt/4E443F99443F82AF/Dropbox/PYTHON/RRtools/results/set2/_expert/7656495465527005052'
p17
atp18
sS'IMG_0405.jpg'
p19
(S'-8351036944642787810'
(lp20
S'/mnt/4E443F99443F82AF/Dropbox/PYTHON/RRtools/results/set2/_expert/-8351036944642787810'
p21
atp22
sS'IMG_0408.jpg'
p23
(S'3903551018170869503'
(lp24
S'/mnt/4E443F99443F82AF/Dropbox/PYTHON/RRtools/results/set2/_expert/3903551018170869503'
p25
atp26
s.