(dp1
S'IMG_0384.jpg'
p2
(S'3666087054121545784'
p3
(lp4
S'/mnt/4E443F99443F82AF/Dropbox/PYTHON/RRtools/results/set12/_expert/3666087054121545784'
p5
atp6
sS'IMG_0381.jpg'
p7
(S'-5226423458482078679'
(lp8
S'/mnt/4E443F99443F82AF/Dropbox/PYTHON/RRtools/results/set12/_expert/-5226423458482078679'
p9
atp10
sS'IMG_0383.jpg'
p11
(S'-2787211794942319669'
(lp12
S'/mnt/4E443F99443F82AF/Dropbox/PYTHON/RRtools/results/set12/_expert/-2787211794942319669'
p13
atp14
sS'IMG_0382.jpg'
p15
(S'7216586410168576446'
(lp16
S'/mnt/4E443F99443F82AF/Dropbox/PYTHON/RRtools/results/set12/_expert/7216586410168576446'
p17
atp18
s.