(dp1
S'IMG_0260.jpg'
p2
(S'1866921607760067275'
(lp3
S'/mnt/4E443F99443F82AF/Dropbox/PYTHON/RRtools/results/set6/_expert/1866921607760067275'
p4
atp5
sS'IMG_0264.jpg'
p6
(S'-3011429718567449017'
p7
(lp8
S'/mnt/4E443F99443F82AF/Dropbox/PYTHON/RRtools/results/set6/_expert/-3011429718567449017'
p9
atp10
sS'IMG_0262.jpg'
p11
(S'-572290055779691735'
(lp12
S'/mnt/4E443F99443F82AF/Dropbox/PYTHON/RRtools/results/set6/_expert/-572290055779691735'
p13
atp14
sS'IMG_0259.jpg'
p15
(S'-7020699224926584821'
(lp16
S'/mnt/4E443F99443F82AF/Dropbox/PYTHON/RRtools/results/set6/_expert/-7020699224926584821'
p17
atp18
sS'IMG_0263.jpg'
p19
(S'-9015235924122346468'
(lp20
S'/mnt/4E443F99443F82AF/Dropbox/PYTHON/RRtools/results/set6/_expert/-9015235924122346468'
p21
atp22
sS'IMG_0257.jpg'
p23
(S'-6774517307562200483'
(lp24
S'/mnt/4E443F99443F82AF/Dropbox/PYTHON/RRtools/results/set6/_expert/-6774517307562200483'
p25
atp26
sS'IMG_0258.jpg'
p27
(S'2983098980440312318'
(lp28
S'/mnt/4E443F99443F82AF/Dropbox/PYTHON/RRtools/results/set6/_expert/2983098980440312318'
p29
atp30
s.