(dp1
S'num:merged'
p2
(S'751389545782035328'
(lp3
S'/mnt/4E443F99443F82AF/Dropbox/PYTHON/RRtools/results/set11/_statistics/751389545782035328'
p4
atp5
sS'rate:different perspectives'
p6
(S'-1290027529441920505'
(lp7
S'/mnt/4E443F99443F82AF/Dropbox/PYTHON/RRtools/results/set11/_statistics/-1290027529441920505'
p8
atp9
sS'sta:base image'
p10
(S'1360484690547466506'
(lp11
S'/mnt/4E443F99443F82AF/Dropbox/PYTHON/RRtools/results/set11/_statistics/1360484690547466506'
p12
atp13
sS'time:difference porcentage'
p14
(S'7724748798887748110'
(lp15
S'/mnt/4E443F99443F82AF/Dropbox/PYTHON/RRtools/results/set11/_statistics/7724748798887748110'
p16
atp17
sS'num:failed'
p18
(S'7821514568490317839'
(lp19
S'/mnt/4E443F99443F82AF/Dropbox/PYTHON/RRtools/results/set11/_statistics/7821514568490317839'
p20
atp21
sS'time:cached porcentage'
p22
(S'1729329639709115667'
(lp23
S'/mnt/4E443F99443F82AF/Dropbox/PYTHON/RRtools/results/set11/_statistics/1729329639709115667'
p24
atp25
sS'time:uncached'
p26
(S'6113489196369974933'
(lp27
S'/mnt/4E443F99443F82AF/Dropbox/PYTHON/RRtools/results/set11/_statistics/6113489196369974933'
p28
atp29
sS'time:uncached porcentage'
p30
(S'-4540213405834981974'
(lp31
S'/mnt/4E443F99443F82AF/Dropbox/PYTHON/RRtools/results/set11/_statistics/-4540213405834981974'
p32
atp33
sS'rate:merged'
p34
(S'3872858115782084651'
(lp35
S'/mnt/4E443F99443F82AF/Dropbox/PYTHON/RRtools/results/set11/_statistics/3872858115782084651'
p36
atp37
sS'num:used'
p38
(S'-1353862211279584587'
(lp39
S'/mnt/4E443F99443F82AF/Dropbox/PYTHON/RRtools/results/set11/_statistics/-1353862211279584587'
p40
atp41
sS'num:good images'
p42
(S'7540085267014570422'
(lp43
S'/mnt/4E443F99443F82AF/Dropbox/PYTHON/RRtools/results/set11/_statistics/7540085267014570422'
p44
atp45
sS'time:difference'
p46
(S'1057013278705616053'
(lp47
S'/mnt/4E443F99443F82AF/Dropbox/PYTHON/RRtools/results/set11/_statistics/1057013278705616053'
p48
atp49
sS'rate:failed'
p50
(S'-5604982435403568956'
(lp51
S'/mnt/4E443F99443F82AF/Dropbox/PYTHON/RRtools/results/set11/_statistics/-5604982435403568956'
p52
atp53
sS'time:cached'
p54
(S'-6599380517641659530'
(lp55
S'/mnt/4E443F99443F82AF/Dropbox/PYTHON/RRtools/results/set11/_statistics/-6599380517641659530'
p56
atp57
sS'rate:lens simulation'
p58
(S'-4582778398564276275'
(lp59
S'/mnt/4E443F99443F82AF/Dropbox/PYTHON/RRtools/results/set11/_statistics/-4582778398564276275'
p60
atp61
sS'rate:good images'
p62
(S'-7763664432003022001'
(lp63
S'/mnt/4E443F99443F82AF/Dropbox/PYTHON/RRtools/results/set11/_statistics/-7763664432003022001'
p64
atp65
sS'sta:set is restorable'
p66
(S'3548037904764718032'
(lp67
S'/mnt/4E443F99443F82AF/Dropbox/PYTHON/RRtools/results/set11/_statistics/3548037904764718032'
p68
atp69
sS'sta:restoration qualification'
p70
(S'346885605032110422'
(lp71
S'/mnt/4E443F99443F82AF/Dropbox/PYTHON/RRtools/results/set11/_statistics/346885605032110422'
p72
atp73
sS'rate:good selected images'
p74
(S'-7659152368818201123'
(lp75
S'/mnt/4E443F99443F82AF/Dropbox/PYTHON/RRtools/results/set11/_statistics/-7659152368818201123'
p76
atp77
sS'sta:merged images'
p78
(S'-6167033326157022625'
(lp79
S'/mnt/4E443F99443F82AF/Dropbox/PYTHON/RRtools/results/set11/_statistics/-6167033326157022625'
p80
atp81
sS'sta:set qualification'
p82
(S'-4623532181712183322'
(lp83
S'/mnt/4E443F99443F82AF/Dropbox/PYTHON/RRtools/results/set11/_statistics/-4623532181712183322'
p84
atp85
sS'rate:used'
p86
(S'295629607894008054'
(lp87
S'/mnt/4E443F99443F82AF/Dropbox/PYTHON/RRtools/results/set11/_statistics/295629607894008054'
p88
atp89
sS'num:images'
p90
(S'-2363099945147123078'
(lp91
S'/mnt/4E443F99443F82AF/Dropbox/PYTHON/RRtools/results/set11/_statistics/-2363099945147123078'
p92
atp93
sS'time:gain'
p94
(S'-9019762620624190593'
p95
(lp96
S'/mnt/4E443F99443F82AF/Dropbox/PYTHON/RRtools/results/set11/_statistics/-9019762620624190593'
p97
atp98
s.