(dp1
S'IMG_20150730_125212.jpg'
p2
(S'6650318114671302080'
(lp3
S'/mnt/4E443F99443F82AF/Dropbox/PYTHON/RRtools/results/set24/_expert/6650318114671302080'
p4
atp5
sS'IMG_20150730_125222.jpg'
p6
(S'4044002082227905449'
(lp7
S'/mnt/4E443F99443F82AF/Dropbox/PYTHON/RRtools/results/set24/_expert/4044002082227905449'
p8
atp9
sS'IMG_20150730_125228.jpg'
p10
(S'-2191810854211267549'
p11
(lp12
S'/mnt/4E443F99443F82AF/Dropbox/PYTHON/RRtools/results/set24/_expert/-2191810854211267549'
p13
atp14
sS'IMG_20150730_125216.jpg'
p15
(S'1771966788343785804'
(lp16
S'/mnt/4E443F99443F82AF/Dropbox/PYTHON/RRtools/results/set24/_expert/1771966788343785804'
p17
atp18
s.