ccopy_reg
_reconstructor
p1
(cmatplotlib.font_manager
FontManager
p2
c__builtin__
object
p3
NtRp4
(dp5
S'ttflist'
p6
(lp7
g1
(cmatplotlib.font_manager
FontEntry
p8
g3
NtRp9
(dp10
S'style'
p11
Vnormal
p12
sS'name'
p13
VBitstream Vera Serif
p14
sS'weight'
p15
I400
sS'stretch'
p16
g12
sS'variant'
p17
g12
sS'fname'
p18
V/usr/local/lib/python2.7/dist-packages/matplotlib/mpl-data/fonts/ttf/VeraSe.ttf
p19
sS'size'
p20
Vscalable
p21
sbag1
(g8
g3
NtRp22
(dp23
g11
Voblique
p24
sg13
VBitstream Vera Sans Mono
p25
sg15
I700
sg16
g12
sg17
g12
sg18
V/usr/local/lib/python2.7/dist-packages/matplotlib/mpl-data/fonts/ttf/VeraMoBI.ttf
p26
sg20
g21
sbag1
(g8
g3
NtRp27
(dp28
g11
g12
sg13
VSTIXNonUnicode
p29
sg15
I400
sg16
g12
sg17
g12
sg18
V/usr/local/lib/python2.7/dist-packages/matplotlib/mpl-data/fonts/ttf/STIXNonUni.ttf
p30
sg20
g21
sbag1
(g8
g3
NtRp31
(dp32
g11
g12
sg13
VBitstream Vera Sans
p33
sg15
I700
sg16
g12
sg17
g12
sg18
V/usr/local/lib/python2.7/dist-packages/matplotlib/mpl-data/fonts/ttf/VeraBd.ttf
p34
sg20
g21
sbag1
(g8
g3
NtRp35
(dp36
g11
g12
sg13
VSTIXGeneral
p37
sg15
I700
sg16
g12
sg17
g12
sg18
V/usr/local/lib/python2.7/dist-packages/matplotlib/mpl-data/fonts/ttf/STIXGeneralBol.ttf
p38
sg20
g21
sbag1
(g8
g3
NtRp39
(dp40
g11
g12
sg13
Vcmr10
p41
sg15
I400
sg16
g12
sg17
g12
sg18
V/usr/local/lib/python2.7/dist-packages/matplotlib/mpl-data/fonts/ttf/cmr10.ttf
p42
sg20
g21
sbag1
(g8
g3
NtRp43
(dp44
g11
g12
sg13
VSTIXNonUnicode
p45
sg15
I700
sg16
g12
sg17
g12
sg18
V/usr/local/lib/python2.7/dist-packages/matplotlib/mpl-data/fonts/ttf/STIXNonUniBol.ttf
p46
sg20
g21
sbag1
(g8
g3
NtRp47
(dp48
g11
g12
sg13
VSTIXSizeTwoSym
p49
sg15
I400
sg16
g12
sg17
g12
sg18
V/usr/local/lib/python2.7/dist-packages/matplotlib/mpl-data/fonts/ttf/STIXSizTwoSymReg.ttf
p50
sg20
g21
sbag1
(g8
g3
NtRp51
(dp52
g11
Vitalic
p53
sg13
VSTIXNonUnicode
p54
sg15
I400
sg16
g12
sg17
g12
sg18
V/usr/local/lib/python2.7/dist-packages/matplotlib/mpl-data/fonts/ttf/STIXNonUniIta.ttf
p55
sg20
g21
sbag1
(g8
g3
NtRp56
(dp57
g11
g12
sg13
VSTIXSizeFourSym
p58
sg15
I400
sg16
g12
sg17
g12
sg18
V/usr/local/lib/python2.7/dist-packages/matplotlib/mpl-data/fonts/ttf/STIXSizFourSymReg.ttf
p59
sg20
g21
sbag1
(g8
g3
NtRp60
(dp61
g11
g12
sg13
VSTIXSizeThreeSym
p62
sg15
I700
sg16
g12
sg17
g12
sg18
V/usr/local/lib/python2.7/dist-packages/matplotlib/mpl-data/fonts/ttf/STIXSizThreeSymBol.ttf
p63
sg20
g21
sbag1
(g8
g3
NtRp64
(dp65
g11
g12
sg13
VSTIXSizeOneSym
p66
sg15
I700
sg16
g12
sg17
g12
sg18
V/usr/local/lib/python2.7/dist-packages/matplotlib/mpl-data/fonts/ttf/STIXSizOneSymBol.ttf
p67
sg20
g21
sbag1
(g8
g3
NtRp68
(dp69
g11
g24
sg13
VBitstream Vera Sans
p70
sg15
I400
sg16
g12
sg17
g12
sg18
V/usr/local/lib/python2.7/dist-packages/matplotlib/mpl-data/fonts/ttf/VeraIt.ttf
p71
sg20
g21
sbag1
(g8
g3
NtRp72
(dp73
g11
g53
sg13
VSTIXGeneral
p74
sg15
I700
sg16
g12
sg17
g12
sg18
V/usr/local/lib/python2.7/dist-packages/matplotlib/mpl-data/fonts/ttf/STIXGeneralBolIta.ttf
p75
sg20
g21
sbag1
(g8
g3
NtRp76
(dp77
g11
g12
sg13
Vcmsy10
p78
sg15
I400
sg16
g12
sg17
g12
sg18
V/usr/local/lib/python2.7/dist-packages/matplotlib/mpl-data/fonts/ttf/cmsy10.ttf
p79
sg20
g21
sbag1
(g8
g3
NtRp80
(dp81
g11
g12
sg13
Vcmss10
p82
sg15
I400
sg16
g12
sg17
g12
sg18
V/usr/local/lib/python2.7/dist-packages/matplotlib/mpl-data/fonts/ttf/cmss10.ttf
p83
sg20
g21
sbag1
(g8
g3
NtRp84
(dp85
g11
g53
sg13
VSTIXNonUnicode
p86
sg15
I700
sg16
g12
sg17
g12
sg18
V/usr/local/lib/python2.7/dist-packages/matplotlib/mpl-data/fonts/ttf/STIXNonUniBolIta.ttf
p87
sg20
g21
sbag1
(g8
g3
NtRp88
(dp89
g11
g12
sg13
VSTIXSizeThreeSym
p90
sg15
I400
sg16
g12
sg17
g12
sg18
V/usr/local/lib/python2.7/dist-packages/matplotlib/mpl-data/fonts/ttf/STIXSizThreeSymReg.ttf
p91
sg20
g21
sbag1
(g8
g3
NtRp92
(dp93
g11
g12
sg13
Vcmmi10
p94
sg15
I400
sg16
g12
sg17
g12
sg18
V/usr/local/lib/python2.7/dist-packages/matplotlib/mpl-data/fonts/ttf/cmmi10.ttf
p95
sg20
g21
sbag1
(g8
g3
NtRp96
(dp97
g11
g12
sg13
Vcmb10
p98
sg15
I400
sg16
g12
sg17
g12
sg18
V/usr/local/lib/python2.7/dist-packages/matplotlib/mpl-data/fonts/ttf/cmb10.ttf
p99
sg20
g21
sbag1
(g8
g3
NtRp100
(dp101
g11
g12
sg13
VSTIXSizeFiveSym
p102
sg15
I400
sg16
g12
sg17
g12
sg18
V/usr/local/lib/python2.7/dist-packages/matplotlib/mpl-data/fonts/ttf/STIXSizFiveSymReg.ttf
p103
sg20
g21
sbag1
(g8
g3
NtRp104
(dp105
g11
g12
sg13
VSTIXSizeTwoSym
p106
sg15
I700
sg16
g12
sg17
g12
sg18
V/usr/local/lib/python2.7/dist-packages/matplotlib/mpl-data/fonts/ttf/STIXSizTwoSymBol.ttf
p107
sg20
g21
sbag1
(g8
g3
NtRp108
(dp109
g11
g12
sg13
VSTIXSizeFourSym
p110
sg15
I700
sg16
g12
sg17
g12
sg18
V/usr/local/lib/python2.7/dist-packages/matplotlib/mpl-data/fonts/ttf/STIXSizFourSymBol.ttf
p111
sg20
g21
sbag1
(g8
g3
NtRp112
(dp113
g11
g12
sg13
VBitstream Vera Sans Mono
p114
sg15
I700
sg16
g12
sg17
g12
sg18
V/usr/local/lib/python2.7/dist-packages/matplotlib/mpl-data/fonts/ttf/VeraMoBd.ttf
p115
sg20
g21
sbag1
(g8
g3
NtRp116
(dp117
g11
g12
sg13
VBitstream Vera Sans Mono
p118
sg15
I400
sg16
g12
sg17
g12
sg18
V/usr/local/lib/python2.7/dist-packages/matplotlib/mpl-data/fonts/ttf/VeraMono.ttf
p119
sg20
g21
sbag1
(g8
g3
NtRp120
(dp121
g11
g24
sg13
VBitstream Vera Sans
p122
sg15
I700
sg16
g12
sg17
g12
sg18
V/usr/local/lib/python2.7/dist-packages/matplotlib/mpl-data/fonts/ttf/VeraBI.ttf
p123
sg20
g21
sbag1
(g8
g3
NtRp124
(dp125
g11
g12
sg13
VBitstream Vera Serif
p126
sg15
I700
sg16
g12
sg17
g12
sg18
V/usr/local/lib/python2.7/dist-packages/matplotlib/mpl-data/fonts/ttf/VeraSeBd.ttf
p127
sg20
g21
sbag1
(g8
g3
NtRp128
(dp129
g11
g12
sg13
VSTIXGeneral
p130
sg15
I400
sg16
g12
sg17
g12
sg18
V/usr/local/lib/python2.7/dist-packages/matplotlib/mpl-data/fonts/ttf/STIXGeneral.ttf
p131
sg20
g21
sbag1
(g8
g3
NtRp132
(dp133
g11
g12
sg13
VBitstream Vera Sans
p134
sg15
I400
sg16
g12
sg17
g12
sg18
V/usr/local/lib/python2.7/dist-packages/matplotlib/mpl-data/fonts/ttf/Vera.ttf
p135
sg20
g21
sbag1
(g8
g3
NtRp136
(dp137
g11
g12
sg13
Vcmex10
p138
sg15
I400
sg16
g12
sg17
g12
sg18
V/usr/local/lib/python2.7/dist-packages/matplotlib/mpl-data/fonts/ttf/cmex10.ttf
p139
sg20
g21
sbag1
(g8
g3
NtRp140
(dp141
g11
g24
sg13
VBitstream Vera Sans Mono
p142
sg15
I400
sg16
g12
sg17
g12
sg18
V/usr/local/lib/python2.7/dist-packages/matplotlib/mpl-data/fonts/ttf/VeraMoIt.ttf
p143
sg20
g21
sbag1
(g8
g3
NtRp144
(dp145
g11
g12
sg13
VSTIXSizeOneSym
p146
sg15
I400
sg16
g12
sg17
g12
sg18
V/usr/local/lib/python2.7/dist-packages/matplotlib/mpl-data/fonts/ttf/STIXSizOneSymReg.ttf
p147
sg20
g21
sbag1
(g8
g3
NtRp148
(dp149
g11
g12
sg13
Vcmtt10
p150
sg15
I400
sg16
g12
sg17
g12
sg18
V/usr/local/lib/python2.7/dist-packages/matplotlib/mpl-data/fonts/ttf/cmtt10.ttf
p151
sg20
g21
sbag1
(g8
g3
NtRp152
(dp153
g11
g53
sg13
VSTIXGeneral
p154
sg15
I400
sg16
g12
sg17
g12
sg18
V/usr/local/lib/python2.7/dist-packages/matplotlib/mpl-data/fonts/ttf/STIXGeneralItalic.ttf
p155
sg20
g21
sbag1
(g8
g3
NtRp156
(dp157
g11
g12
sg13
VDroid Sans Ethiopic
p158
sg15
I700
sg16
g12
sg17
g12
sg18
V/usr/share/fonts/truetype/droid/DroidSansEthiopic-Bold.ttf
p159
sg20
g21
sbag1
(g8
g3
NtRp160
(dp161
g11
g12
sg13
VUbuntu
p162
sg15
I500
sg16
g12
sg17
g12
sg18
V/usr/share/fonts/truetype/ubuntu-font-family/Ubuntu-M.ttf
p163
sg20
g21
sbag1
(g8
g3
NtRp164
(dp165
g11
g53
sg13
VUbuntu
p166
sg15
I700
sg16
g12
sg17
g12
sg18
V/usr/share/fonts/truetype/ubuntu-font-family/Ubuntu-BI.ttf
p167
sg20
g21
sbag1
(g8
g3
NtRp168
(dp169
g11
g12
sg13
VDroid Serif
p170
sg15
I700
sg16
g12
sg17
g12
sg18
V/usr/share/fonts/truetype/droid/DroidSerif-Bold.ttf
p171
sg20
g21
sbag1
(g8
g3
NtRp172
(dp173
g11
g53
sg13
VUbuntu
p174
sg15
I400
sg16
g12
sg17
g12
sg18
V/usr/share/fonts/truetype/ubuntu-font-family/Ubuntu-RI.ttf
p175
sg20
g21
sbag1
(g8
g3
NtRp176
(dp177
g11
g12
sg13
VDejaVu Serif
p178
sg15
I400
sg16
g12
sg17
g12
sg18
V/usr/share/fonts/truetype/dejavu/DejaVuSerif.ttf
p179
sg20
g21
sbag1
(g8
g3
NtRp180
(dp181
g11
g12
sg13
VFreeSerif
p182
sg15
I700
sg16
g12
sg17
g12
sg18
V/usr/share/fonts/truetype/freefont/FreeSerifBold.ttf
p183
sg20
g21
sbag1
(g8
g3
NtRp184
(dp185
g11
g12
sg13
Vmsam10
p186
sg15
I400
sg16
g12
sg17
g12
sg18
V/usr/share/fonts/truetype/lyx/msam10.ttf
p187
sg20
g21
sbag1
(g8
g3
NtRp188
(dp189
g11
g12
sg13
VLiberation Sans Narrow
p190
sg15
I700
sg16
Vcondensed
p191
sg17
g12
sg18
V/usr/share/fonts/truetype/liberation/LiberationSansNarrow-Bold.ttf
p192
sg20
g21
sbag1
(g8
g3
NtRp193
(dp194
g11
g24
sg13
VFreeSans
p195
sg15
I400
sg16
g12
sg17
g12
sg18
V/usr/share/fonts/truetype/freefont/FreeSansOblique.ttf
p196
sg20
g21
sbag1
(g8
g3
NtRp197
(dp198
g11
g12
sg13
VDroid Sans Armenian
p199
sg15
I400
sg16
g12
sg17
g12
sg18
V/usr/share/fonts/truetype/droid/DroidSansArmenian.ttf
p200
sg20
g21
sbag1
(g8
g3
NtRp201
(dp202
g11
g12
sg13
VLiberation Sans
p203
sg15
I700
sg16
g12
sg17
g12
sg18
V/usr/share/fonts/truetype/liberation/LiberationSans-Bold.ttf
p204
sg20
g21
sbag1
(g8
g3
NtRp205
(dp206
g11
g12
sg13
VDejaVu Sans Mono
p207
sg15
I700
sg16
g12
sg17
g12
sg18
V/usr/share/fonts/truetype/dejavu/DejaVuSansMono-Bold.ttf
p208
sg20
g21
sbag1
(g8
g3
NtRp209
(dp210
g11
g12
sg13
VLiberation Mono
p211
sg15
I400
sg16
g12
sg17
g12
sg18
V/usr/share/fonts/truetype/liberation/LiberationMono-Regular.ttf
p212
sg20
g21
sbag1
(g8
g3
NtRp213
(dp214
g11
g12
sg13
VUbuntu
p215
sg15
I400
sg16
g12
sg17
g12
sg18
V/usr/share/fonts/truetype/ubuntu-font-family/Ubuntu-R.ttf
p216
sg20
g21
sbag1
(g8
g3
NtRp217
(dp218
g11
g53
sg13
Vrsfs10
p219
sg15
I400
sg16
g12
sg17
g12
sg18
V/usr/share/fonts/truetype/lyx/rsfs10.ttf
p220
sg20
g21
sbag1
(g8
g3
NtRp221
(dp222
g11
g12
sg13
VNanumBarunGothic
p223
sg15
I700
sg16
g12
sg17
g12
sg18
V/usr/share/fonts/truetype/nanum/NanumBarunGothicBold.ttf
p224
sg20
g21
sbag1
(g8
g3
NtRp225
(dp226
g11
g12
sg13
VNanumGothic
p227
sg15
I400
sg16
g12
sg17
g12
sg18
V/usr/share/fonts/truetype/nanum/NanumGothic.ttf
p228
sg20
g21
sbag1
(g8
g3
NtRp229
(dp230
g11
g12
sg13
VDroid Arabic Naskh
p231
sg15
I400
sg16
g12
sg17
g12
sg18
V/usr/share/fonts/truetype/droid/DroidNaskh-Regular.ttf
p232
sg20
g21
sbag1
(g8
g3
NtRp233
(dp234
g11
g53
sg13
VLiberation Mono
p235
sg15
I400
sg16
g12
sg17
g12
sg18
V/usr/share/fonts/truetype/liberation/LiberationMono-Italic.ttf
p236
sg20
g21
sbag1
(g8
g3
NtRp237
(dp238
g11
g12
sg13
VDroid Naskh Shift Alt
p239
sg15
I400
sg16
g12
sg17
g12
sg18
V/usr/share/fonts/truetype/droid/DroidNaskhUI-Regular.ttf
p240
sg20
g21
sbag1
(g8
g3
NtRp241
(dp242
g11
g12
sg13
Vmsbm10
p243
sg15
I400
sg16
g12
sg17
g12
sg18
V/usr/share/fonts/truetype/lyx/msbm10.ttf
p244
sg20
g21
sbag1
(g8
g3
NtRp245
(dp246
g11
g53
sg13
VLiberation Serif
p247
sg15
I700
sg16
g12
sg17
g12
sg18
V/usr/share/fonts/truetype/liberation/LiberationSerif-BoldItalic.ttf
p248
sg20
g21
sbag1
(g8
g3
NtRp249
(dp250
g11
g12
sg13
VLohit Punjabi
p251
sg15
I400
sg16
g12
sg17
g12
sg18
V/usr/share/fonts/truetype/lohit-punjabi/Lohit-Punjabi.ttf
p252
sg20
g21
sbag1
(g8
g3
NtRp253
(dp254
g11
g12
sg13
VLiberation Serif
p255
sg15
I700
sg16
g12
sg17
g12
sg18
V/usr/share/fonts/truetype/liberation/LiberationSerif-Bold.ttf
p256
sg20
g21
sbag1
(g8
g3
NtRp257
(dp258
g11
g53
sg13
VLiberation Sans
p259
sg15
I400
sg16
g12
sg17
g12
sg18
V/usr/share/fonts/truetype/liberation/LiberationSans-Italic.ttf
p260
sg20
g21
sbag1
(g8
g3
NtRp261
(dp262
g11
g12
sg13
VNanumMyeongjo
p263
sg15
I700
sg16
g12
sg17
g12
sg18
V/usr/share/fonts/truetype/nanum/NanumMyeongjoBold.ttf
p264
sg20
g21
sbag1
(g8
g3
NtRp265
(dp266
g11
g12
sg13
Veufm10
p267
sg15
I400
sg16
g12
sg17
g12
sg18
V/usr/share/fonts/truetype/lyx/eufm10.ttf
p268
sg20
g21
sbag1
(g8
g3
NtRp269
(dp270
g11
g12
sg13
VDroid Sans
p271
sg15
I400
sg16
g12
sg17
g12
sg18
V/usr/share/fonts/truetype/droid/DroidSans.ttf
p272
sg20
g21
sbag1
(g8
g3
NtRp273
(dp274
g11
g12
sg13
Vesint10
p275
sg15
I400
sg16
g12
sg17
g12
sg18
V/usr/share/fonts/truetype/lyx/esint10.ttf
p276
sg20
g21
sbag1
(g8
g3
NtRp277
(dp278
g11
g12
sg13
VDroid Sans Hebrew
p279
sg15
I700
sg16
g12
sg17
g12
sg18
V/usr/share/fonts/truetype/droid/DroidSansHebrew-Bold.ttf
p280
sg20
g21
sbag1
(g8
g3
NtRp281
(dp282
g11
g12
sg13
VDroid Arabic Naskh
p283
sg15
I700
sg16
g12
sg17
g12
sg18
V/usr/share/fonts/truetype/droid/DroidNaskh-Bold.ttf
p284
sg20
g21
sbag1
(g8
g3
NtRp285
(dp286
g11
g12
sg13
VUbuntu Mono
p287
sg15
I400
sg16
g12
sg17
g12
sg18
V/usr/share/fonts/truetype/ubuntu-font-family/UbuntuMono-R.ttf
p288
sg20
g21
sbag1
(g8
g3
NtRp289
(dp290
g11
g12
sg13
VDroid Serif
p291
sg15
I400
sg16
g12
sg17
g12
sg18
V/usr/share/fonts/truetype/droid/DroidSerif-Regular.ttf
p292
sg20
g21
sbag1
(g8
g3
NtRp293
(dp294
g11
g53
sg13
VLiberation Sans
p295
sg15
I700
sg16
g12
sg17
g12
sg18
V/usr/share/fonts/truetype/liberation/LiberationSans-BoldItalic.ttf
p296
sg20
g21
sbag1
(g8
g3
NtRp297
(dp298
g11
g12
sg13
VFreeSans
p299
sg15
I700
sg16
g12
sg17
g12
sg18
V/usr/share/fonts/truetype/freefont/FreeSansBold.ttf
p300
sg20
g21
sbag1
(g8
g3
NtRp301
(dp302
g11
g12
sg13
VDroid Sans Georgian
p303
sg15
I400
sg16
g12
sg17
g12
sg18
V/usr/share/fonts/truetype/droid/DroidSansGeorgian.ttf
p304
sg20
g21
sbag1
(g8
g3
NtRp305
(dp306
g11
g12
sg13
VDroid Arabic Kufi
p307
sg15
I700
sg16
g12
sg17
g12
sg18
V/usr/share/fonts/truetype/droid/DroidKufi-Bold.ttf
p308
sg20
g21
sbag1
(g8
g3
NtRp309
(dp310
g11
g12
sg13
VFreeMono
p311
sg15
I700
sg16
g12
sg17
g12
sg18
V/usr/share/fonts/truetype/freefont/FreeMonoBold.ttf
p312
sg20
g21
sbag1
(g8
g3
NtRp313
(dp314
g11
g12
sg13
VUbuntu
p315
sg15
I200
sg16
g12
sg17
g12
sg18
V/usr/share/fonts/truetype/ubuntu-font-family/Ubuntu-L.ttf
p316
sg20
g21
sbag1
(g8
g3
NtRp317
(dp318
g11
g53
sg13
VDroid Serif
p319
sg15
I700
sg16
g12
sg17
g12
sg18
V/usr/share/fonts/truetype/droid/DroidSerif-BoldItalic.ttf
p320
sg20
g21
sbag1
(g8
g3
NtRp321
(dp322
g11
g12
sg13
Vwasy10
p323
sg15
I400
sg16
g12
sg17
g12
sg18
V/usr/share/fonts/truetype/lyx/wasy10.ttf
p324
sg20
g21
sbag1
(g8
g3
NtRp325
(dp326
g11
g53
sg13
VUbuntu
p327
sg15
I200
sg16
g12
sg17
g12
sg18
V/usr/share/fonts/truetype/ubuntu-font-family/Ubuntu-LI.ttf
p328
sg20
g21
sbag1
(g8
g3
NtRp329
(dp330
g11
g12
sg13
VDroid Sans Mono
p331
sg15
I400
sg16
g12
sg17
g12
sg18
V/usr/share/fonts/truetype/droid/DroidSansMono.ttf
p332
sg20
g21
sbag1
(g8
g3
NtRp333
(dp334
g11
g12
sg13
VNanumGothic
p335
sg15
I700
sg16
g12
sg17
g12
sg18
V/usr/share/fonts/truetype/nanum/NanumGothicBold.ttf
p336
sg20
g21
sbag1
(g8
g3
NtRp337
(dp338
g11
g53
sg13
VLiberation Mono
p339
sg15
I700
sg16
g12
sg17
g12
sg18
V/usr/share/fonts/truetype/liberation/LiberationMono-BoldItalic.ttf
p340
sg20
g21
sbag1
(g8
g3
NtRp341
(dp342
g11
g12
sg13
VDejaVu Sans Mono
p343
sg15
I400
sg16
g12
sg17
g12
sg18
V/usr/share/fonts/truetype/dejavu/DejaVuSansMono.ttf
p344
sg20
g21
sbag1
(g8
g3
NtRp345
(dp346
g11
g12
sg13
VUbuntu Mono
p347
sg15
I700
sg16
g12
sg17
g12
sg18
V/usr/share/fonts/truetype/ubuntu-font-family/UbuntuMono-B.ttf
p348
sg20
g21
sbag1
(g8
g3
NtRp349
(dp350
g11
g12
sg13
VDroid Sans Fallback
p351
sg15
I400
sg16
g12
sg17
g12
sg18
V/usr/share/fonts/truetype/droid/DroidSansFallbackFull.ttf
p352
sg20
g21
sbag1
(g8
g3
NtRp353
(dp354
g11
g12
sg13
VDroid Sans Arabic
p355
sg15
I400
sg16
g12
sg17
g12
sg18
V/usr/share/fonts/truetype/droid/DroidSansArabic.ttf
p356
sg20
g21
sbag1
(g8
g3
NtRp357
(dp358
g11
g12
sg13
VUbuntu
p359
sg15
I700
sg16
g12
sg17
g12
sg18
V/usr/share/fonts/truetype/ubuntu-font-family/Ubuntu-B.ttf
p360
sg20
g21
sbag1
(g8
g3
NtRp361
(dp362
g11
g24
sg13
VFreeSans
p363
sg15
I700
sg16
g12
sg17
g12
sg18
V/usr/share/fonts/truetype/freefont/FreeSansBoldOblique.ttf
p364
sg20
g21
sbag1
(g8
g3
NtRp365
(dp366
g11
g53
sg13
VDroid Serif
p367
sg15
I400
sg16
g12
sg17
g12
sg18
V/usr/share/fonts/truetype/droid/DroidSerif-Italic.ttf
p368
sg20
g21
sbag1
(g8
g3
NtRp369
(dp370
g11
g12
sg13
VSymbola
p371
sg15
I400
sg16
g12
sg17
g12
sg18
V/usr/share/fonts/truetype/ttf-ancient-scripts/Symbola717.ttf
p372
sg20
g21
sbag1
(g8
g3
NtRp373
(dp374
g11
g12
sg13
VDejaVu Sans
p375
sg15
I700
sg16
g12
sg17
g12
sg18
V/usr/share/fonts/truetype/dejavu/DejaVuSans-Bold.ttf
p376
sg20
g21
sbag1
(g8
g3
NtRp377
(dp378
g11
g12
sg13
VLiberation Mono
p379
sg15
I700
sg16
g12
sg17
g12
sg18
V/usr/share/fonts/truetype/liberation/LiberationMono-Bold.ttf
p380
sg20
g21
sbag1
(g8
g3
NtRp381
(dp382
g11
g24
sg13
VFreeMono
p383
sg15
I700
sg16
g12
sg17
g12
sg18
V/usr/share/fonts/truetype/freefont/FreeMonoBoldOblique.ttf
p384
sg20
g21
sbag1
(g8
g3
NtRp385
(dp386
g11
g53
sg13
VLiberation Serif
p387
sg15
I400
sg16
g12
sg17
g12
sg18
V/usr/share/fonts/truetype/liberation/LiberationSerif-Italic.ttf
p388
sg20
g21
sbag1
(g8
g3
NtRp389
(dp390
g11
g12
sg13
VNanumBarunGothic
p391
sg15
I400
sg16
g12
sg17
g12
sg18
V/usr/share/fonts/truetype/nanum/NanumBarunGothic.ttf
p392
sg20
g21
sbag1
(g8
g3
NtRp393
(dp394
g11
g12
sg13
VFreeSans
p395
sg15
I400
sg16
g12
sg17
g12
sg18
V/usr/share/fonts/truetype/freefont/FreeSans.ttf
p396
sg20
g21
sbag1
(g8
g3
NtRp397
(dp398
g11
g12
sg13
VSaab
p399
sg15
I400
sg16
g12
sg17
g12
sg18
V/usr/share/fonts/truetype/fonts-guru-extra/Saab.ttf
p400
sg20
g21
sbag1
(g8
g3
NtRp401
(dp402
g11
g53
sg13
VFreeSerif
p403
sg15
I700
sg16
g12
sg17
g12
sg18
V/usr/share/fonts/truetype/freefont/FreeSerifBoldItalic.ttf
p404
sg20
g21
sbag1
(g8
g3
NtRp405
(dp406
g11
g53
sg13
VLiberation Sans Narrow
p407
sg15
I700
sg16
g191
sg17
g12
sg18
V/usr/share/fonts/truetype/liberation/LiberationSansNarrow-BoldItalic.ttf
p408
sg20
g21
sbag1
(g8
g3
NtRp409
(dp410
g11
g12
sg13
VLiberation Serif
p411
sg15
I400
sg16
g12
sg17
g12
sg18
V/usr/share/fonts/truetype/liberation/LiberationSerif-Regular.ttf
p412
sg20
g21
sbag1
(g8
g3
NtRp413
(dp414
g11
g12
sg13
VDejaVu Sans
p415
sg15
I400
sg16
g12
sg17
g12
sg18
V/usr/share/fonts/truetype/dejavu/DejaVuSans.ttf
p416
sg20
g21
sbag1
(g8
g3
NtRp417
(dp418
g11
g12
sg13
VDroid Sans Ethiopic
p419
sg15
I400
sg16
g12
sg17
g12
sg18
V/usr/share/fonts/truetype/droid/DroidSansEthiopic-Regular.ttf
p420
sg20
g21
sbag1
(g8
g3
NtRp421
(dp422
g11
g12
sg13
VLiberation Sans
p423
sg15
I400
sg16
g12
sg17
g12
sg18
V/usr/share/fonts/truetype/liberation/LiberationSans-Regular.ttf
p424
sg20
g21
sbag1
(g8
g3
NtRp425
(dp426
g11
g12
sg13
VUbuntu Condensed
p427
sg15
I400
sg16
g191
sg17
g12
sg18
V/usr/share/fonts/truetype/ubuntu-font-family/Ubuntu-C.ttf
p428
sg20
g21
sbag1
(g8
g3
NtRp429
(dp430
g11
g12
sg13
VDroid Sans
p431
sg15
I700
sg16
g12
sg17
g12
sg18
V/usr/share/fonts/truetype/droid/DroidSans-Bold.ttf
p432
sg20
g21
sbag1
(g8
g3
NtRp433
(dp434
g11
g53
sg13
VUbuntu Mono
p435
sg15
I700
sg16
g12
sg17
g12
sg18
V/usr/share/fonts/truetype/ubuntu-font-family/UbuntuMono-BI.ttf
p436
sg20
g21
sbag1
(g8
g3
NtRp437
(dp438
g11
g53
sg13
VUbuntu
p439
sg15
I500
sg16
g12
sg17
g12
sg18
V/usr/share/fonts/truetype/ubuntu-font-family/Ubuntu-MI.ttf
p440
sg20
g21
sbag1
(g8
g3
NtRp441
(dp442
g11
g24
sg13
VFreeMono
p443
sg15
I400
sg16
g12
sg17
g12
sg18
V/usr/share/fonts/truetype/freefont/FreeMonoOblique.ttf
p444
sg20
g21
sbag1
(g8
g3
NtRp445
(dp446
g11
g12
sg13
VDroid Arabic Kufi
p447
sg15
I400
sg16
g12
sg17
g12
sg18
V/usr/share/fonts/truetype/droid/DroidKufi-Regular.ttf
p448
sg20
g21
sbag1
(g8
g3
NtRp449
(dp450
g11
g12
sg13
VDejaVu Serif
p451
sg15
I700
sg16
g12
sg17
g12
sg18
V/usr/share/fonts/truetype/dejavu/DejaVuSerif-Bold.ttf
p452
sg20
g21
sbag1
(g8
g3
NtRp453
(dp454
g11
g12
sg13
VFreeSerif
p455
sg15
I400
sg16
g12
sg17
g12
sg18
V/usr/share/fonts/truetype/freefont/FreeSerif.ttf
p456
sg20
g21
sbag1
(g8
g3
NtRp457
(dp458
g11
g12
sg13
VLiberation Sans Narrow
p459
sg15
I400
sg16
g191
sg17
g12
sg18
V/usr/share/fonts/truetype/liberation/LiberationSansNarrow-Regular.ttf
p460
sg20
g21
sbag1
(g8
g3
NtRp461
(dp462
g11
g12
sg13
VNanumMyeongjo
p463
sg15
I400
sg16
g12
sg17
g12
sg18
V/usr/share/fonts/truetype/nanum/NanumMyeongjo.ttf
p464
sg20
g21
sbag1
(g8
g3
NtRp465
(dp466
g11
g12
sg13
Vstmary10
p467
sg15
I400
sg16
g12
sg17
g12
sg18
V/usr/share/fonts/truetype/lyx/stmary10.ttf
p468
sg20
g21
sbag1
(g8
g3
NtRp469
(dp470
g11
g53
sg13
VUbuntu Mono
p471
sg15
I400
sg16
g12
sg17
g12
sg18
V/usr/share/fonts/truetype/ubuntu-font-family/UbuntuMono-RI.ttf
p472
sg20
g21
sbag1
(g8
g3
NtRp473
(dp474
g11
g12
sg13
VFreeMono
p475
sg15
I400
sg16
g12
sg17
g12
sg18
V/usr/share/fonts/truetype/freefont/FreeMono.ttf
p476
sg20
g21
sbag1
(g8
g3
NtRp477
(dp478
g11
g53
sg13
VFreeSerif
p479
sg15
I400
sg16
g12
sg17
g12
sg18
V/usr/share/fonts/truetype/freefont/FreeSerifItalic.ttf
p480
sg20
g21
sbag1
(g8
g3
NtRp481
(dp482
g11
g12
sg13
VDroid Sans Japanese
p483
sg15
I400
sg16
g12
sg17
g12
sg18
V/usr/share/fonts/truetype/droid/DroidSansJapanese.ttf
p484
sg20
g21
sbag1
(g8
g3
NtRp485
(dp486
g11
g53
sg13
VLiberation Sans Narrow
p487
sg15
I400
sg16
g191
sg17
g12
sg18
V/usr/share/fonts/truetype/liberation/LiberationSansNarrow-Italic.ttf
p488
sg20
g21
sbag1
(g8
g3
NtRp489
(dp490
g11
g12
sg13
VDroid Sans Hebrew
p491
sg15
I400
sg16
g12
sg17
g12
sg18
V/usr/share/fonts/truetype/droid/DroidSansHebrew-Regular.ttf
p492
sg20
g21
sbasS'defaultFamily'
p493
(dp494
Vafm
p495
VHelvetica
p496
sVttf
p497
VBitstream Vera Sans
p498
ssS'ttffiles'
p499
(lp500
g19
ag26
ag30
ag34
ag38
ag42
ag46
ag50
ag55
ag59
ag63
ag67
ag71
ag75
ag79
ag83
ag87
ag91
ag95
ag99
ag103
ag107
ag111
ag115
ag119
ag123
ag127
ag131
ag135
ag139
ag143
ag147
ag151
ag155
ag159
aV/usr/share/fonts/truetype/lyx/cmr10.ttf
p501
ag163
ag167
ag171
ag175
ag179
ag183
ag187
aV/usr/share/fonts/truetype/lyx/cmmi10.ttf
p502
ag192
ag196
ag200
ag204
ag208
ag212
ag216
ag220
ag224
ag228
ag232
ag236
ag240
ag244
ag248
ag252
ag256
ag260
ag264
ag268
ag272
ag276
ag280
ag284
ag288
ag292
ag296
ag300
ag304
ag308
ag312
ag316
ag320
ag324
ag328
ag332
ag336
ag340
ag344
ag348
aV/usr/share/fonts/truetype/lyx/cmsy10.ttf
p503
ag352
ag356
ag360
ag364
ag368
ag372
ag376
ag380
ag384
ag388
ag392
ag396
ag400
ag404
ag408
ag412
ag416
ag420
ag424
ag428
ag432
ag436
ag440
ag444
ag448
ag452
ag456
ag460
aV/usr/share/fonts/truetype/lyx/cmex10.ttf
p504
ag464
ag468
ag472
ag476
ag480
ag484
ag488
ag492
asS'_FontManager__default_weight'
p505
Vnormal
p506
sS'_version'
p507
I101
sS'default_size'
p508
NsS'defaultFont'
p509
(dp510
g495
V/usr/local/lib/python2.7/dist-packages/matplotlib/mpl-data/fonts/afm/cmtt10.afm
p511
sg497
g135
ssS'afmfiles'
p512
(lp513
g511
aV/usr/local/lib/python2.7/dist-packages/matplotlib/mpl-data/fonts/afm/pncbi8a.afm
p514
aV/usr/local/lib/python2.7/dist-packages/matplotlib/mpl-data/fonts/pdfcorefonts/Helvetica-BoldOblique.afm
p515
aV/usr/local/lib/python2.7/dist-packages/matplotlib/mpl-data/fonts/pdfcorefonts/Times-BoldItalic.afm
p516
aV/usr/local/lib/python2.7/dist-packages/matplotlib/mpl-data/fonts/afm/putb8a.afm
p517
aV/usr/local/lib/python2.7/dist-packages/matplotlib/mpl-data/fonts/afm/pplbi8a.afm
p518
aV/usr/local/lib/python2.7/dist-packages/matplotlib/mpl-data/fonts/afm/phvb8an.afm
p519
aV/usr/local/lib/python2.7/dist-packages/matplotlib/mpl-data/fonts/afm/phvlo8a.afm
p520
aV/usr/local/lib/python2.7/dist-packages/matplotlib/mpl-data/fonts/afm/pzcmi8a.afm
p521
aV/usr/local/lib/python2.7/dist-packages/matplotlib/mpl-data/fonts/afm/putri8a.afm
p522
aV/usr/local/lib/python2.7/dist-packages/matplotlib/mpl-data/fonts/afm/phvro8a.afm
p523
aV/usr/local/lib/python2.7/dist-packages/matplotlib/mpl-data/fonts/afm/pcrro8a.afm
p524
aV/usr/local/lib/python2.7/dist-packages/matplotlib/mpl-data/fonts/afm/pbkd8a.afm
p525
aV/usr/local/lib/python2.7/dist-packages/matplotlib/mpl-data/fonts/afm/phvr8an.afm
p526
aV/usr/local/lib/python2.7/dist-packages/matplotlib/mpl-data/fonts/afm/putr8a.afm
p527
aV/usr/local/lib/python2.7/dist-packages/matplotlib/mpl-data/fonts/afm/phvb8a.afm
p528
aV/usr/local/lib/python2.7/dist-packages/matplotlib/mpl-data/fonts/pdfcorefonts/Times-Roman.afm
p529
aV/usr/local/lib/python2.7/dist-packages/matplotlib/mpl-data/fonts/afm/pbkdi8a.afm
p530
aV/usr/local/lib/python2.7/dist-packages/matplotlib/mpl-data/fonts/afm/phvbo8a.afm
p531
aV/usr/local/lib/python2.7/dist-packages/matplotlib/mpl-data/fonts/afm/pncr8a.afm
p532
aV/usr/local/lib/python2.7/dist-packages/matplotlib/mpl-data/fonts/afm/pagd8a.afm
p533
aV/usr/local/lib/python2.7/dist-packages/matplotlib/mpl-data/fonts/pdfcorefonts/Courier-Oblique.afm
p534
aV/usr/local/lib/python2.7/dist-packages/matplotlib/mpl-data/fonts/pdfcorefonts/Courier-BoldOblique.afm
p535
aV/usr/local/lib/python2.7/dist-packages/matplotlib/mpl-data/fonts/afm/phvl8a.afm
p536
aV/usr/local/lib/python2.7/dist-packages/matplotlib/mpl-data/fonts/afm/pcrr8a.afm
p537
aV/usr/local/lib/python2.7/dist-packages/matplotlib/mpl-data/fonts/afm/pcrbo8a.afm
p538
aV/usr/local/lib/python2.7/dist-packages/matplotlib/mpl-data/fonts/pdfcorefonts/Helvetica-Oblique.afm
p539
aV/usr/local/lib/python2.7/dist-packages/matplotlib/mpl-data/fonts/afm/cmmi10.afm
p540
aV/usr/local/lib/python2.7/dist-packages/matplotlib/mpl-data/fonts/afm/ptmbi8a.afm
p541
aV/usr/local/lib/python2.7/dist-packages/matplotlib/mpl-data/fonts/afm/pncb8a.afm
p542
aV/usr/local/lib/python2.7/dist-packages/matplotlib/mpl-data/fonts/afm/ptmri8a.afm
p543
aV/usr/local/lib/python2.7/dist-packages/matplotlib/mpl-data/fonts/afm/pagdo8a.afm
p544
aV/usr/local/lib/python2.7/dist-packages/matplotlib/mpl-data/fonts/afm/ptmb8a.afm
p545
aV/usr/local/lib/python2.7/dist-packages/matplotlib/mpl-data/fonts/afm/phvro8an.afm
p546
aV/usr/local/lib/python2.7/dist-packages/matplotlib/mpl-data/fonts/pdfcorefonts/ZapfDingbats.afm
p547
aV/usr/local/lib/python2.7/dist-packages/matplotlib/mpl-data/fonts/afm/pncri8a.afm
p548
aV/usr/local/lib/python2.7/dist-packages/matplotlib/mpl-data/fonts/afm/pzdr.afm
p549
aV/usr/local/lib/python2.7/dist-packages/matplotlib/mpl-data/fonts/afm/cmsy10.afm
p550
aV/usr/local/lib/python2.7/dist-packages/matplotlib/mpl-data/fonts/pdfcorefonts/Helvetica.afm
p551
aV/usr/local/lib/python2.7/dist-packages/matplotlib/mpl-data/fonts/pdfcorefonts/Courier-Bold.afm
p552
aV/usr/local/lib/python2.7/dist-packages/matplotlib/mpl-data/fonts/afm/pcrb8a.afm
p553
aV/usr/local/lib/python2.7/dist-packages/matplotlib/mpl-data/fonts/afm/pbkli8a.afm
p554
aV/usr/local/lib/python2.7/dist-packages/matplotlib/mpl-data/fonts/pdfcorefonts/Courier.afm
p555
aV/usr/local/lib/python2.7/dist-packages/matplotlib/mpl-data/fonts/afm/phvbo8an.afm
p556
aV/usr/local/lib/python2.7/dist-packages/matplotlib/mpl-data/fonts/afm/cmex10.afm
p557
aV/usr/local/lib/python2.7/dist-packages/matplotlib/mpl-data/fonts/pdfcorefonts/Times-Italic.afm
p558
aV/usr/local/lib/python2.7/dist-packages/matplotlib/mpl-data/fonts/afm/pplri8a.afm
p559
aV/usr/local/lib/python2.7/dist-packages/matplotlib/mpl-data/fonts/afm/pagk8a.afm
p560
aV/usr/local/lib/python2.7/dist-packages/matplotlib/mpl-data/fonts/afm/pplb8a.afm
p561
aV/usr/local/lib/python2.7/dist-packages/matplotlib/mpl-data/fonts/afm/putbi8a.afm
p562
aV/usr/local/lib/python2.7/dist-packages/matplotlib/mpl-data/fonts/afm/psyr.afm
p563
aV/usr/local/lib/python2.7/dist-packages/matplotlib/mpl-data/fonts/pdfcorefonts/Times-Bold.afm
p564
aV/usr/local/lib/python2.7/dist-packages/matplotlib/mpl-data/fonts/afm/cmr10.afm
p565
aV/usr/local/lib/python2.7/dist-packages/matplotlib/mpl-data/fonts/afm/pplr8a.afm
p566
aV/usr/local/lib/python2.7/dist-packages/matplotlib/mpl-data/fonts/afm/ptmr8a.afm
p567
aV/usr/local/lib/python2.7/dist-packages/matplotlib/mpl-data/fonts/afm/phvr8a.afm
p568
aV/usr/local/lib/python2.7/dist-packages/matplotlib/mpl-data/fonts/afm/pbkl8a.afm
p569
aV/usr/local/lib/python2.7/dist-packages/matplotlib/mpl-data/fonts/pdfcorefonts/Symbol.afm
p570
aV/usr/local/lib/python2.7/dist-packages/matplotlib/mpl-data/fonts/afm/pagko8a.afm
p571
aV/usr/local/lib/python2.7/dist-packages/matplotlib/mpl-data/fonts/pdfcorefonts/Helvetica-Bold.afm
p572
aV/usr/share/fonts/type1/gsfonts/n021024l.afm
p573
aV/usr/share/fonts/type1/gsfonts/s050000l.afm
p574
aV/usr/share/fonts/type1/gsfonts/n021004l.afm
p575
aV/usr/share/fonts/type1/gsfonts/n019024l.afm
p576
aV/usr/share/fonts/type1/gsfonts/d050000l.afm
p577
aV/usr/share/fonts/type1/gsfonts/p052004l.afm
p578
aV/usr/share/fonts/type1/gsfonts/n019044l.afm
p579
aV/usr/share/fonts/type1/gsfonts/b018012l.afm
p580
aV/usr/share/fonts/type1/gsfonts/n022003l.afm
p581
aV/usr/share/fonts/type1/gsfonts/c059013l.afm
p582
aV/usr/share/fonts/type1/gsfonts/a010033l.afm
p583
aV/usr/share/fonts/type1/gsfonts/c059036l.afm
p584
aV/usr/share/fonts/type1/gsfonts/z003034l.afm
p585
aV/usr/share/fonts/type1/gsfonts/n022024l.afm
p586
aV/usr/share/fonts/type1/gsfonts/n019043l.afm
p587
aV/usr/share/fonts/type1/gsfonts/n019064l.afm
p588
aV/usr/share/fonts/type1/gsfonts/n019003l.afm
p589
aV/usr/share/fonts/type1/gsfonts/p052024l.afm
p590
aV/usr/share/fonts/type1/gsfonts/b018035l.afm
p591
aV/usr/share/fonts/type1/gsfonts/a010013l.afm
p592
aV/usr/share/fonts/type1/gsfonts/n022004l.afm
p593
aV/usr/share/fonts/type1/gsfonts/a010035l.afm
p594
aV/usr/share/fonts/type1/gsfonts/c059033l.afm
p595
aV/usr/share/fonts/type1/gsfonts/n019023l.afm
p596
aV/usr/share/fonts/type1/gsfonts/p052023l.afm
p597
aV/usr/share/fonts/type1/gsfonts/n019004l.afm
p598
aV/usr/share/fonts/type1/gsfonts/p052003l.afm
p599
aV/usr/share/fonts/type1/gsfonts/a010015l.afm
p600
aV/usr/share/fonts/type1/gsfonts/b018032l.afm
p601
aV/usr/share/fonts/type1/gsfonts/c059016l.afm
p602
aV/usr/share/fonts/type1/gsfonts/n022023l.afm
p603
aV/usr/share/fonts/type1/gsfonts/n021023l.afm
p604
aV/usr/share/fonts/type1/gsfonts/n021003l.afm
p605
aV/usr/share/fonts/type1/gsfonts/n019063l.afm
p606
aV/usr/share/fonts/type1/gsfonts/b018015l.afm
p607
asS'afmlist'
p608
(lp609
g1
(g8
g3
NtRp610
(dp611
g11
Vnormal
p612
sg13
S'Computer Modern'
p613
sg15
I500
sg16
g612
sg17
g612
sg18
g511
sg20
Vscalable
p614
sbag1
(g8
g3
NtRp615
(dp616
g11
Vitalic
p617
sg13
S'New Century Schoolbook'
p618
sg15
I700
sg16
g612
sg17
g612
sg18
g514
sg20
g614
sbag1
(g8
g3
NtRp619
(dp620
g11
g617
sg13
S'Helvetica'
p621
sg15
I700
sg16
g612
sg17
g612
sg18
g515
sg20
g614
sbag1
(g8
g3
NtRp622
(dp623
g11
g617
sg13
S'Times'
p624
sg15
I700
sg16
g612
sg17
g612
sg18
g516
sg20
g614
sbag1
(g8
g3
NtRp625
(dp626
g11
g612
sg13
S'Utopia'
p627
sg15
I700
sg16
g612
sg17
g612
sg18
g517
sg20
g614
sbag1
(g8
g3
NtRp628
(dp629
g11
g617
sg13
S'Palatino'
p630
sg15
I700
sg16
g612
sg17
g612
sg18
g518
sg20
g614
sbag1
(g8
g3
NtRp631
(dp632
g11
g612
sg13
S'Helvetica'
p633
sg15
I700
sg16
Vcondensed
p634
sg17
g612
sg18
g519
sg20
g614
sbag1
(g8
g3
NtRp635
(dp636
g11
g617
sg13
S'Helvetica'
p637
sg15
I200
sg16
g612
sg17
g612
sg18
g520
sg20
g614
sbag1
(g8
g3
NtRp638
(dp639
g11
g617
sg13
S'ITC Zapf Chancery'
p640
sg15
I500
sg16
g612
sg17
g612
sg18
g521
sg20
g614
sbag1
(g8
g3
NtRp641
(dp642
g11
g617
sg13
S'Utopia'
p643
sg15
I400
sg16
g612
sg17
g612
sg18
g522
sg20
g614
sbag1
(g8
g3
NtRp644
(dp645
g11
g617
sg13
S'Helvetica'
p646
sg15
I500
sg16
g612
sg17
g612
sg18
g523
sg20
g614
sbag1
(g8
g3
NtRp647
(dp648
g11
g617
sg13
S'Courier'
p649
sg15
I500
sg16
g612
sg17
g612
sg18
g524
sg20
g614
sbag1
(g8
g3
NtRp650
(dp651
g11
g612
sg13
S'ITC Bookman'
p652
sg15
I600
sg16
g612
sg17
g612
sg18
g525
sg20
g614
sbag1
(g8
g3
NtRp653
(dp654
g11
g612
sg13
S'Helvetica'
p655
sg15
I500
sg16
g634
sg17
g612
sg18
g526
sg20
g614
sbag1
(g8
g3
NtRp656
(dp657
g11
g612
sg13
S'Utopia'
p658
sg15
I400
sg16
g612
sg17
g612
sg18
g527
sg20
g614
sbag1
(g8
g3
NtRp659
(dp660
g11
g612
sg13
S'Helvetica'
p661
sg15
I700
sg16
g612
sg17
g612
sg18
g528
sg20
g614
sbag1
(g8
g3
NtRp662
(dp663
g11
g612
sg13
S'Times'
p664
sg15
I500
sg16
g612
sg17
g612
sg18
g529
sg20
g614
sbag1
(g8
g3
NtRp665
(dp666
g11
g617
sg13
S'ITC Bookman'
p667
sg15
I600
sg16
g612
sg17
g612
sg18
g530
sg20
g614
sbag1
(g8
g3
NtRp668
(dp669
g11
g617
sg13
S'Helvetica'
p670
sg15
I700
sg16
g612
sg17
g612
sg18
g531
sg20
g614
sbag1
(g8
g3
NtRp671
(dp672
g11
g612
sg13
S'New Century Schoolbook'
p673
sg15
I500
sg16
g612
sg17
g612
sg18
g532
sg20
g614
sbag1
(g8
g3
NtRp674
(dp675
g11
g612
sg13
S'ITC Avant Garde Gothic'
p676
sg15
I600
sg16
g612
sg17
g612
sg18
g533
sg20
g614
sbag1
(g8
g3
NtRp677
(dp678
g11
g617
sg13
S'Courier'
p679
sg15
I500
sg16
g612
sg17
g612
sg18
g534
sg20
g614
sbag1
(g8
g3
NtRp680
(dp681
g11
g617
sg13
S'Courier'
p682
sg15
I700
sg16
g612
sg17
g612
sg18
g535
sg20
g614
sbag1
(g8
g3
NtRp683
(dp684
g11
g612
sg13
S'Helvetica'
p685
sg15
I200
sg16
g612
sg17
g612
sg18
g536
sg20
g614
sbag1
(g8
g3
NtRp686
(dp687
g11
g612
sg13
S'Courier'
p688
sg15
I500
sg16
g612
sg17
g612
sg18
g537
sg20
g614
sbag1
(g8
g3
NtRp689
(dp690
g11
g617
sg13
S'Courier'
p691
sg15
I700
sg16
g612
sg17
g612
sg18
g538
sg20
g614
sbag1
(g8
g3
NtRp692
(dp693
g11
g617
sg13
S'Helvetica'
p694
sg15
I500
sg16
g612
sg17
g612
sg18
g539
sg20
g614
sbag1
(g8
g3
NtRp695
(dp696
g11
g617
sg13
S'Computer Modern'
p697
sg15
I500
sg16
g612
sg17
g612
sg18
g540
sg20
g614
sbag1
(g8
g3
NtRp698
(dp699
g11
g617
sg13
S'Times'
p700
sg15
I700
sg16
g612
sg17
g612
sg18
g541
sg20
g614
sbag1
(g8
g3
NtRp701
(dp702
g11
g612
sg13
S'New Century Schoolbook'
p703
sg15
I700
sg16
g612
sg17
g612
sg18
g542
sg20
g614
sbag1
(g8
g3
NtRp704
(dp705
g11
g617
sg13
S'Times'
p706
sg15
I500
sg16
g612
sg17
g612
sg18
g543
sg20
g614
sbag1
(g8
g3
NtRp707
(dp708
g11
g617
sg13
S'ITC Avant Garde Gothic'
p709
sg15
I600
sg16
g612
sg17
g612
sg18
g544
sg20
g614
sbag1
(g8
g3
NtRp710
(dp711
g11
g612
sg13
S'Times'
p712
sg15
I700
sg16
g612
sg17
g612
sg18
g545
sg20
g614
sbag1
(g8
g3
NtRp713
(dp714
g11
g617
sg13
S'Helvetica'
p715
sg15
I500
sg16
g634
sg17
g612
sg18
g546
sg20
g614
sbag1
(g8
g3
NtRp716
(dp717
g11
g612
sg13
S'ZapfDingbats'
p718
sg15
I500
sg16
g612
sg17
g612
sg18
g547
sg20
g614
sbag1
(g8
g3
NtRp719
(dp720
g11
g617
sg13
S'New Century Schoolbook'
p721
sg15
I500
sg16
g612
sg17
g612
sg18
g548
sg20
g614
sbag1
(g8
g3
NtRp722
(dp723
g11
g612
sg13
S'ITC Zapf Dingbats'
p724
sg15
I500
sg16
g612
sg17
g612
sg18
g549
sg20
g614
sbag1
(g8
g3
NtRp725
(dp726
g11
g617
sg13
S'Computer Modern'
p727
sg15
I500
sg16
g612
sg17
g612
sg18
g550
sg20
g614
sbag1
(g8
g3
NtRp728
(dp729
g11
g612
sg13
S'Helvetica'
p730
sg15
I500
sg16
g612
sg17
g612
sg18
g551
sg20
g614
sbag1
(g8
g3
NtRp731
(dp732
g11
g612
sg13
S'Courier'
p733
sg15
I700
sg16
g612
sg17
g612
sg18
g552
sg20
g614
sbag1
(g8
g3
NtRp734
(dp735
g11
g612
sg13
S'Courier'
p736
sg15
I700
sg16
g612
sg17
g612
sg18
g553
sg20
g614
sbag1
(g8
g3
NtRp737
(dp738
g11
g617
sg13
S'ITC Bookman'
p739
sg15
I200
sg16
g612
sg17
g612
sg18
g554
sg20
g614
sbag1
(g8
g3
NtRp740
(dp741
g11
g612
sg13
S'Courier'
p742
sg15
I500
sg16
g612
sg17
g612
sg18
g555
sg20
g614
sbag1
(g8
g3
NtRp743
(dp744
g11
g617
sg13
S'Helvetica'
p745
sg15
I700
sg16
g634
sg17
g612
sg18
g556
sg20
g614
sbag1
(g8
g3
NtRp746
(dp747
g11
g612
sg13
S'Computer Modern'
p748
sg15
I500
sg16
g612
sg17
g612
sg18
g557
sg20
g614
sbag1
(g8
g3
NtRp749
(dp750
g11
g617
sg13
S'Times'
p751
sg15
I500
sg16
g612
sg17
g612
sg18
g558
sg20
g614
sbag1
(g8
g3
NtRp752
(dp753
g11
g617
sg13
S'Palatino'
p754
sg15
I500
sg16
g612
sg17
g612
sg18
g559
sg20
g614
sbag1
(g8
g3
NtRp755
(dp756
g11
g612
sg13
S'ITC Avant Garde Gothic'
p757
sg15
I400
sg16
g612
sg17
g612
sg18
g560
sg20
g614
sbag1
(g8
g3
NtRp758
(dp759
g11
g612
sg13
S'Palatino'
p760
sg15
I700
sg16
g612
sg17
g612
sg18
g561
sg20
g614
sbag1
(g8
g3
NtRp761
(dp762
g11
g617
sg13
S'Utopia'
p763
sg15
I700
sg16
g612
sg17
g612
sg18
g562
sg20
g614
sbag1
(g8
g3
NtRp764
(dp765
g11
g612
sg13
S'Symbol'
p766
sg15
I500
sg16
g612
sg17
g612
sg18
g563
sg20
g614
sbag1
(g8
g3
NtRp767
(dp768
g11
g612
sg13
S'Times'
p769
sg15
I700
sg16
g612
sg17
g612
sg18
g564
sg20
g614
sbag1
(g8
g3
NtRp770
(dp771
g11
g612
sg13
S'Computer Modern'
p772
sg15
I500
sg16
g612
sg17
g612
sg18
g565
sg20
g614
sbag1
(g8
g3
NtRp773
(dp774
g11
g612
sg13
S'Palatino'
p775
sg15
I500
sg16
g612
sg17
g612
sg18
g566
sg20
g614
sbag1
(g8
g3
NtRp776
(dp777
g11
g612
sg13
S'Times'
p778
sg15
I500
sg16
g612
sg17
g612
sg18
g567
sg20
g614
sbag1
(g8
g3
NtRp779
(dp780
g11
g612
sg13
S'Helvetica'
p781
sg15
I500
sg16
g612
sg17
g612
sg18
g568
sg20
g614
sbag1
(g8
g3
NtRp782
(dp783
g11
g612
sg13
S'ITC Bookman'
p784
sg15
I200
sg16
g612
sg17
g612
sg18
g569
sg20
g614
sbag1
(g8
g3
NtRp785
(dp786
g11
g612
sg13
S'Symbol'
p787
sg15
I500
sg16
g612
sg17
g612
sg18
g570
sg20
g614
sbag1
(g8
g3
NtRp788
(dp789
g11
g617
sg13
S'ITC Avant Garde Gothic'
p790
sg15
I400
sg16
g612
sg17
g612
sg18
g571
sg20
g614
sbag1
(g8
g3
NtRp791
(dp792
g11
g612
sg13
S'Helvetica'
p793
sg15
I700
sg16
g612
sg17
g612
sg18
g572
sg20
g614
sbag1
(g8
g3
NtRp794
(dp795
g11
g617
sg13
S'Nimbus Roman No9 L'
p796
sg15
I700
sg16
g612
sg17
g612
sg18
g573
sg20
g614
sbag1
(g8
g3
NtRp797
(dp798
g11
g612
sg13
S'Standard Symbols L'
p799
sg15
I400
sg16
g612
sg17
g612
sg18
g574
sg20
g614
sbag1
(g8
g3
NtRp800
(dp801
g11
g612
sg13
S'Nimbus Roman No9 L'
p802
sg15
I700
sg16
g612
sg17
g612
sg18
g575
sg20
g614
sbag1
(g8
g3
NtRp803
(dp804
g11
g617
sg13
S'Nimbus Sans L'
p805
sg15
I700
sg16
g612
sg17
g612
sg18
g576
sg20
g614
sbag1
(g8
g3
NtRp806
(dp807
g11
g612
sg13
S'Dingbats'
p808
sg15
I400
sg16
g612
sg17
g612
sg18
g577
sg20
g614
sbag1
(g8
g3
NtRp809
(dp810
g11
g612
sg13
S'URW Palladio L'
p811
sg15
I700
sg16
g612
sg17
g612
sg18
g578
sg20
g614
sbag1
(g8
g3
NtRp812
(dp813
g11
g612
sg13
S'Nimbus Sans L'
p814
sg15
I700
sg16
g634
sg17
g612
sg18
g579
sg20
g614
sbag1
(g8
g3
NtRp815
(dp816
g11
g612
sg13
S'URW Bookman L'
p817
sg15
I400
sg16
g612
sg17
g612
sg18
g580
sg20
g614
sbag1
(g8
g3
NtRp818
(dp819
g11
g612
sg13
S'Nimbus Mono L'
p820
sg15
I400
sg16
g612
sg17
g612
sg18
g581
sg20
g614
sbag1
(g8
g3
NtRp821
(dp822
g11
g612
sg13
S'Century Schoolbook L'
p823
sg15
I500
sg16
g612
sg17
g612
sg18
g582
sg20
g614
sbag1
(g8
g3
NtRp824
(dp825
g11
g617
sg13
S'URW Gothic L'
p826
sg15
I400
sg16
g612
sg17
g612
sg18
g583
sg20
g614
sbag1
(g8
g3
NtRp827
(dp828
g11
g617
sg13
S'Century Schoolbook L'
p829
sg15
I700
sg16
g612
sg17
g612
sg18
g584
sg20
g614
sbag1
(g8
g3
NtRp830
(dp831
g11
g617
sg13
S'URW Chancery L'
p832
sg15
I500
sg16
g612
sg17
g612
sg18
g585
sg20
g614
sbag1
(g8
g3
NtRp833
(dp834
g11
g617
sg13
S'Nimbus Mono L'
p835
sg15
I700
sg16
g612
sg17
g612
sg18
g586
sg20
g614
sbag1
(g8
g3
NtRp836
(dp837
g11
g612
sg13
S'Nimbus Sans L'
p838
sg15
I400
sg16
g634
sg17
g612
sg18
g587
sg20
g614
sbag1
(g8
g3
NtRp839
(dp840
g11
g617
sg13
S'Nimbus Sans L'
p841
sg15
I700
sg16
g634
sg17
g612
sg18
g588
sg20
g614
sbag1
(g8
g3
NtRp842
(dp843
g11
g612
sg13
S'Nimbus Sans L'
p844
sg15
I400
sg16
g612
sg17
g612
sg18
g589
sg20
g614
sbag1
(g8
g3
NtRp845
(dp846
g11
g617
sg13
S'URW Palladio L'
p847
sg15
I700
sg16
g612
sg17
g612
sg18
g590
sg20
g614
sbag1
(g8
g3
NtRp848
(dp849
g11
g617
sg13
S'URW Bookman L'
p850
sg15
I700
sg16
g612
sg17
g612
sg18
g591
sg20
g614
sbag1
(g8
g3
NtRp851
(dp852
g11
g612
sg13
S'URW Gothic L'
p853
sg15
I400
sg16
g612
sg17
g612
sg18
g592
sg20
g614
sbag1
(g8
g3
NtRp854
(dp855
g11
g612
sg13
S'Nimbus Mono L'
p856
sg15
I700
sg16
g612
sg17
g612
sg18
g593
sg20
g614
sbag1
(g8
g3
NtRp857
(dp858
g11
g617
sg13
S'URW Gothic L'
p859
sg15
I600
sg16
g612
sg17
g612
sg18
g594
sg20
g614
sbag1
(g8
g3
NtRp860
(dp861
g11
g617
sg13
S'Century Schoolbook L'
p862
sg15
I400
sg16
g612
sg17
g612
sg18
g595
sg20
g614
sbag1
(g8
g3
NtRp863
(dp864
g11
g617
sg13
S'Nimbus Sans L'
p865
sg15
I400
sg16
g612
sg17
g612
sg18
g596
sg20
g614
sbag1
(g8
g3
NtRp866
(dp867
g11
g617
sg13
S'URW Palladio L'
p868
sg15
I400
sg16
g612
sg17
g612
sg18
g597
sg20
g614
sbag1
(g8
g3
NtRp869
(dp870
g11
g612
sg13
S'Nimbus Sans L'
p871
sg15
I700
sg16
g612
sg17
g612
sg18
g598
sg20
g614
sbag1
(g8
g3
NtRp872
(dp873
g11
g612
sg13
S'URW Palladio L'
p874
sg15
I500
sg16
g612
sg17
g612
sg18
g599
sg20
g614
sbag1
(g8
g3
NtRp875
(dp876
g11
g612
sg13
S'URW Gothic L'
p877
sg15
I600
sg16
g612
sg17
g612
sg18
g600
sg20
g614
sbag1
(g8
g3
NtRp878
(dp879
g11
g617
sg13
S'URW Bookman L'
p880
sg15
I400
sg16
g612
sg17
g612
sg18
g601
sg20
g614
sbag1
(g8
g3
NtRp881
(dp882
g11
g612
sg13
S'Century Schoolbook L'
p883
sg15
I700
sg16
g612
sg17
g612
sg18
g602
sg20
g614
sbag1
(g8
g3
NtRp884
(dp885
g11
g617
sg13
S'Nimbus Mono L'
p886
sg15
I400
sg16
g612
sg17
g612
sg18
g603
sg20
g614
sbag1
(g8
g3
NtRp887
(dp888
g11
g617
sg13
S'Nimbus Roman No9 L'
p889
sg15
I400
sg16
g612
sg17
g612
sg18
g604
sg20
g614
sbag1
(g8
g3
NtRp890
(dp891
g11
g612
sg13
S'Nimbus Roman No9 L'
p892
sg15
I400
sg16
g612
sg17
g612
sg18
g605
sg20
g614
sbag1
(g8
g3
NtRp893
(dp894
g11
g617
sg13
S'Nimbus Sans L'
p895
sg15
I400
sg16
g634
sg17
g612
sg18
g606
sg20
g614
sbag1
(g8
g3
NtRp896
(dp897
g11
g612
sg13
S'URW Bookman L'
p898
sg15
I700
sg16
g612
sg17
g612
sg18
g607
sg20
g614
sbasb.