(dp1
S'IMG_0403.jpg'
p2
(S'7671264285274590232'
(lp3
S'/mnt/4E443F99443F82AF/Dropbox/PYTHON/RRtools/results/set14/_expert/7671264285274590232'
p4
atp5
sS'IMG_0401.jpg'
p6
(S'5217339802483247098'
(lp7
S'/mnt/4E443F99443F82AF/Dropbox/PYTHON/RRtools/results/set14/_expert/5217339802483247098'
p8
atp9
sS'IMG_0404.jpg'
p10
(S'91908923699866923'
p11
(lp12
S'/mnt/4E443F99443F82AF/Dropbox/PYTHON/RRtools/results/set14/_expert/91908923699866923'
p13
atp14
sS'IMG_0402.jpg'
p15
(S'-2332517919804305819'
(lp16
S'/mnt/4E443F99443F82AF/Dropbox/PYTHON/RRtools/results/set14/_expert/-2332517919804305819'
p17
atp18
s.