(dp1
S'IMG_0306.jpg'
p2
(S'-563418979906026110'
(lp3
S'/mnt/4E443F99443F82AF/Dropbox/PYTHON/RRtools/results/set8/_expert/-563418979906026110'
p4
atp5
sS'IMG_0311.jpg'
p6
(S'8533181835129121830'
(lp7
S'/mnt/4E443F99443F82AF/Dropbox/PYTHON/RRtools/results/set8/_expert/8533181835129121830'
p8
atp9
sS'IMG_0308.jpg'
p10
(S'-6814256737628786580'
(lp11
S'/mnt/4E443F99443F82AF/Dropbox/PYTHON/RRtools/results/set8/_expert/-6814256737628786580'
p12
atp13
sS'IMG_0307.jpg'
p14
(S'7879542888468628719'
(lp15
S'/mnt/4E443F99443F82AF/Dropbox/PYTHON/RRtools/results/set8/_expert/7879542888468628719'
p16
atp17
sS'IMG_0310.jpg'
p18
(S'-1470648370237774765'
(lp19
S'/mnt/4E443F99443F82AF/Dropbox/PYTHON/RRtools/results/set8/_expert/-1470648370237774765'
p20
atp21
sS'IMG_0309.jpg'
p22
(S'1628689130713867961'
(lp23
S'/mnt/4E443F99443F82AF/Dropbox/PYTHON/RRtools/results/set8/_expert/1628689130713867961'
p24
atp25
sS'IMG_0357.jpg'
p26
(S'3199259233446658620'
p27
(lp28
S'/mnt/4E443F99443F82AF/Dropbox/PYTHON/RRtools/results/set8/_expert/3199259233446658620'
p29
atp30
s.