(dp1
S'im1_1.jpg'
p2
(S'4986282614684286537'
(lp3
S'/mnt/4E443F99443F82AF/Dropbox/PYTHON/RRtools/results/set25/_expert/4986282614684286537'
p4
atp5
sS'IMG_0247.jpg'
p6
(S'-6352275458486506178'
(lp7
S'/mnt/4E443F99443F82AF/Dropbox/PYTHON/RRtools/results/set25/_expert/-6352275458486506178'
p8
atp9
sS'IMG_0244.jpg'
p10
(S'-348541253427609687'
(lp11
S'/mnt/4E443F99443F82AF/Dropbox/PYTHON/RRtools/results/set25/_expert/-348541253427609687'
p12
atp13
sS'IMG_0243.jpg'
p14
(S'7216101288895529242'
(lp15
S'/mnt/4E443F99443F82AF/Dropbox/PYTHON/RRtools/results/set25/_expert/7216101288895529242'
p16
atp17
sS'IMG_0248.jpg'
p18
(S'2336852327476533405'
p19
(lp20
S'/mnt/4E443F99443F82AF/Dropbox/PYTHON/RRtools/results/set25/_expert/2336852327476533405'
p21
atp22
sS'im1_2.jpg'
p23
(S'-2578367927654852354'
(lp24
S'/mnt/4E443F99443F82AF/Dropbox/PYTHON/RRtools/results/set25/_expert/-2578367927654852354'
p25
atp26
s.