(dp1
S'IMG_0359.jpg'
p2
(S'-8996903084076134574'
(lp3
S'/mnt/4E443F99443F82AF/Dropbox/PYTHON/RRtools/results/set9/_expert/-8996903084076134574'
p4
atp5
sS'IMG_0360.jpg'
p6
(S'562220156946764946'
p7
(lp8
S'/mnt/4E443F99443F82AF/Dropbox/PYTHON/RRtools/results/set9/_expert/562220156946764946'
p9
atp10
sS'IMG_0358.jpg'
p11
(S'-553941215701480001'
(lp12
S'/mnt/4E443F99443F82AF/Dropbox/PYTHON/RRtools/results/set9/_expert/-553941215701480001'
p13
atp14
s.