(dp1
S'IMG_20150730_122216.jpg'
p2
(S'4626130343932196133'
(lp3
S'/mnt/4E443F99443F82AF/Dropbox/PYTHON/RRtools/results/set23/_expert/4626130343932196133'
p4
atp5
sS'IMG_20150730_122229.jpg'
p6
(S'-6924450954134295225'
(lp7
S'/mnt/4E443F99443F82AF/Dropbox/PYTHON/RRtools/results/set23/_expert/-6924450954134295225'
p8
atp9
sS'IMG_20150730_122227.jpg'
p10
(S'-1799925710458394647'
(lp11
S'/mnt/4E443F99443F82AF/Dropbox/PYTHON/RRtools/results/set23/_expert/-1799925710458394647'
p12
atp13
sS'IMG_20150730_122225.jpg'
p14
(S'-4239073373486152821'
(lp15
S'/mnt/4E443F99443F82AF/Dropbox/PYTHON/RRtools/results/set23/_expert/-4239073373486152821'
p16
atp17
sS'IMG_20150730_122154.jpg'
p18
(S'6331509381153749356'
(lp19
S'/mnt/4E443F99443F82AF/Dropbox/PYTHON/RRtools/results/set23/_expert/6331509381153749356'
p20
atp21
sS'IMG_20150730_122140.jpg'
p22
(S'-8783858460463883497'
(lp23
S'/mnt/4E443F99443F82AF/Dropbox/PYTHON/RRtools/results/set23/_expert/-8783858460463883497'
p24
atp25
sS'IMG_20150730_122235.jpg'
p26
(S'7303185995824144920'
(lp27
S'/mnt/4E443F99443F82AF/Dropbox/PYTHON/RRtools/results/set23/_expert/7303185995824144920'
p28
atp29
sS'IMG_20150730_122237.jpg'
p30
(S'4863974332284386170'
p31
(lp32
S'/mnt/4E443F99443F82AF/Dropbox/PYTHON/RRtools/results/set23/_expert/4863974332284386170'
p33
atp34
sS'IMG_20150730_122200.jpg'
p35
(S'-1144649552723483108'
(lp36
S'/mnt/4E443F99443F82AF/Dropbox/PYTHON/RRtools/results/set23/_expert/-1144649552723483108'
p37
atp38
s.