(dp1
S'IMG_0367.jpg'
p2
(S'-2109254238981271743'
(lp3
S'/mnt/4E443F99443F82AF/Dropbox/PYTHON/RRtools/results/set10/_expert/-2109254238981271743'
p4
atp5
sS'IMG_0365.jpg'
p6
(S'329957424558487267'
(lp7
S'/mnt/4E443F99443F82AF/Dropbox/PYTHON/RRtools/results/set10/_expert/329957424558487267'
p8
atp9
sS'IMG_0369.jpg'
p10
(S'315188604778901671'
(lp11
S'/mnt/4E443F99443F82AF/Dropbox/PYTHON/RRtools/results/set10/_expert/315188604778901671'
p12
atp13
sS'IMG_0362.jpg'
p14
(S'-1877183507616995280'
(lp15
S'/mnt/4E443F99443F82AF/Dropbox/PYTHON/RRtools/results/set10/_expert/-1877183507616995280'
p16
atp17
sS'IMG_0366.jpg'
p18
(S'3001439820502523988'
(lp19
S'/mnt/4E443F99443F82AF/Dropbox/PYTHON/RRtools/results/set10/_expert/3001439820502523988'
p20
atp21
sS'IMG_0364.jpg'
p22
(S'-8113020444040168010'
(lp23
S'/mnt/4E443F99443F82AF/Dropbox/PYTHON/RRtools/results/set10/_expert/-8113020444040168010'
p24
atp25
sS'IMG_0370.jpg'
p26
(S'7002371397593464449'
p27
(lp28
S'/mnt/4E443F99443F82AF/Dropbox/PYTHON/RRtools/results/set10/_expert/7002371397593464449'
p29
atp30
sS'IMG_0368.jpg'
p31
(S'-8127773263819753478'
(lp32
S'/mnt/4E443F99443F82AF/Dropbox/PYTHON/RRtools/results/set10/_expert/-8127773263819753478'
p33
atp34
sS'IMG_0363.jpg'
p35
(S'6565778360981660157'
(lp36
S'/mnt/4E443F99443F82AF/Dropbox/PYTHON/RRtools/results/set10/_expert/6565778360981660157'
p37
atp38
sS'IMG_0361.jpg'
p39
(S'9005182025577420543'
(lp40
S'/mnt/4E443F99443F82AF/Dropbox/PYTHON/RRtools/results/set10/_expert/9005182025577420543'
p41
atp42
s.