(dp0
S'20150730_110648.jpg'
p1
(S'-8376658696195596287'
p2
(lp3
S'/mnt/4E443F99443F82AF/Dropbox/PYTHON/RRtools/results/_expert/-8376658696195596287'
p4
atp5
sS'IMG_20150730_105626.jpg'
p6
(S'7568556092175634895'
p7
(lp8
S'/mnt/4E443F99443F82AF/Dropbox/PYTHON/RRtools/results/_expert/7568556092175634895'
p9
atp10
sS'IMG_0390.jpg'
p11
(S'6324413841376415755'
p12
(lp13
S'/mnt/4E443F99443F82AF/Dropbox/PYTHON/RRtools/results/_expert/6324413841376415755'
p14
atp15
sS'IMG_20150730_115651_2.jpg'
p16
(S'-6404074783062055411'
p17
(lp18
S'/mnt/4E443F99443F82AF/Dropbox/PYTHON/RRtools/results/_expert/-6404074783062055411'
p19
atp20
sS'IMG_20150730_134235.jpg'
p21
(S'-7272159530884703213'
p22
(lp23
S'/mnt/4E443F99443F82AF/Dropbox/PYTHON/RRtools/results/_expert/-7272159530884703213'
p24
atp25
sS'IMG_20150730_130729.jpg'
p26
(S'5266558701771462165'
p27
(lp28
S'/mnt/4E443F99443F82AF/Dropbox/PYTHON/RRtools/results/_expert/5266558701771462165'
p29
atp30
sS'20150730_131839.jpg'
p31
(S'-6970381149892647914'
p32
(lp33
S'/mnt/4E443F99443F82AF/Dropbox/PYTHON/RRtools/results/_expert/-6970381149892647914'
p34
atp35
sS'im_1_1.jpg'
p36
(S'-2160764923645890845'
p37
(lp38
S'/mnt/4E443F99443F82AF/Dropbox/PYTHON/RRtools/results/_expert/-2160764923645890845'
p39
atp40
sS'IMG_20150730_122235.jpg'
p41
(S'7303185995824144920'
p42
(lp43
S'/mnt/4E443F99443F82AF/Dropbox/PYTHON/RRtools/results/_expert/7303185995824144920'
p44
atp45
sS'IMG_0263.jpg'
p46
(S'-9015235924122346468'
p47
(lp48
S'/mnt/4E443F99443F82AF/Dropbox/PYTHON/RRtools/results/_expert/-9015235924122346468'
p49
atp50
sS'IMG_20150730_134300.jpg'
p51
(S'-1033833099122831330'
p52
(lp53
S'/mnt/4E443F99443F82AF/Dropbox/PYTHON/RRtools/results/_expert/-1033833099122831330'
p54
atp55
sS'IMG_20150730_115647_2.jpg'
p56
(S'5051508351069175984'
p57
(lp58
S'/mnt/4E443F99443F82AF/Dropbox/PYTHON/RRtools/results/_expert/5051508351069175984'
p59
atp60
sS'IMG_20150730_125228.jpg'
p61
(S'-2191810854211267549'
p62
(lp63
S'/mnt/4E443F99443F82AF/Dropbox/PYTHON/RRtools/results/_expert/-2191810854211267549'
p64
atp65
sS'IMG_20150730_115648.jpg'
p66
(S'-8398297990186871034'
p67
(lp68
S'/mnt/4E443F99443F82AF/Dropbox/PYTHON/RRtools/results/_expert/-8398297990186871034'
p69
atp70
sS'IMG_20150730_105753.jpg'
p71
(S'6675658400574424614'
p72
(lp73
S'/mnt/4E443F99443F82AF/Dropbox/PYTHON/RRtools/results/_expert/6675658400574424614'
p74
atp75
sS'IMG_0185.jpg'
p76
(S'-9047037465877958105'
p77
(lp78
S'/mnt/4E443F99443F82AF/Dropbox/PYTHON/RRtools/results/_expert/-9047037465877958105'
p79
atp80
sS'IMG_0381.jpg'
p81
(S'-5226423458482078679'
p82
(lp83
S'/mnt/4E443F99443F82AF/Dropbox/PYTHON/RRtools/results/_expert/-5226423458482078679'
p84
atp85
sS'20150730_092758.jpg'
p86
(S'-7225585585175903702'
p87
(lp88
S'/mnt/4E443F99443F82AF/Dropbox/PYTHON/RRtools/results/_expert/-7225585585175903702'
p89
atp90
sS'IMG_20150730_115651_1.jpg'
p91
(S'-415037397254743374'
p92
(lp93
S'/mnt/4E443F99443F82AF/Dropbox/PYTHON/RRtools/results/_expert/-415037397254743374'
p94
atp95
sS'IMG_20150730_125358.jpg'
p96
(S'1578487908743153199'
p97
(lp98
S'/mnt/4E443F99443F82AF/Dropbox/PYTHON/RRtools/results/_expert/1578487908743153199'
p99
atp100
sS'IMG_0362.jpg'
p101
(S'-1877183507616995280'
p102
(lp103
S'/mnt/4E443F99443F82AF/Dropbox/PYTHON/RRtools/results/_expert/-1877183507616995280'
p104
atp105
sS'IMG_20150730_115644.jpg'
p106
(S'7363052502618537522'
p107
(lp108
S'/mnt/4E443F99443F82AF/Dropbox/PYTHON/RRtools/results/_expert/7363052502618537522'
p109
atp110
sS'IMG_0423.jpg'
p111
(S'5455841424614914614'
p112
(lp113
S'/mnt/4E443F99443F82AF/Dropbox/PYTHON/RRtools/results/_expert/5455841424614914614'
p114
atp115
sS'20150730_131913.jpg'
p116
(S'-4082297125556198857'
p117
(lp118
S'/mnt/4E443F99443F82AF/Dropbox/PYTHON/RRtools/results/_expert/-4082297125556198857'
p119
atp120
sS'IMG_0384.jpg'
p121
(S'3666087054121545784'
p122
(lp123
S'/mnt/4E443F99443F82AF/Dropbox/PYTHON/RRtools/results/_expert/3666087054121545784'
p124
atp125
sS'IMG_20150730_115645_1.jpg'
p126
(S'4382866991790839865'
p127
(lp128
S'/mnt/4E443F99443F82AF/Dropbox/PYTHON/RRtools/results/_expert/4382866991790839865'
p129
atp130
sS'20150730_110530.jpg'
p131
(S'8962979081491376699'
p132
(lp133
S'/mnt/4E443F99443F82AF/Dropbox/PYTHON/RRtools/results/_expert/8962979081491376699'
p134
atp135
sS'IMG_0357.jpg'
p136
(S'3199259233446658620'
p137
(lp138
S'/mnt/4E443F99443F82AF/Dropbox/PYTHON/RRtools/results/_expert/3199259233446658620'
p139
atp140
sS'IMG_0433.jpg'
p141
(S'-7423473478855542211'
p142
(lp143
S'/mnt/4E443F99443F82AF/Dropbox/PYTHON/RRtools/results/_expert/-7423473478855542211'
p144
atp145
sS'IMG_20150730_115648_4.jpg'
p146
(S'-6183396588175068095'
p147
(lp148
S'/mnt/4E443F99443F82AF/Dropbox/PYTHON/RRtools/results/_expert/-6183396588175068095'
p149
atp150
sS'IMG_0251.jpg'
p151
(S'5436149828188175939'
p152
(lp153
S'/mnt/4E443F99443F82AF/Dropbox/PYTHON/RRtools/results/_expert/5436149828188175939'
p154
atp155
sS'20150730_092758(0).jpg'
p156
(S'599692609103491654'
p157
(lp158
S'/mnt/4E443F99443F82AF/Dropbox/PYTHON/RRtools/results/_expert/599692609103491654'
p159
atp160
sS'IMG_0264.jpg'
p161
(S'-3011429718567449017'
p162
(lp163
S'/mnt/4E443F99443F82AF/Dropbox/PYTHON/RRtools/results/_expert/-3011429718567449017'
p164
atp165
sS'im1_1.jpg'
p166
(S'4986282614684286537'
p167
(lp168
S'/mnt/4E443F99443F82AF/Dropbox/PYTHON/RRtools/results/_expert/4986282614684286537'
p169
atp170
sS'IMG_20150730_115649.jpg'
p171
(S'1605484214924025419'
p172
(lp173
S'/mnt/4E443F99443F82AF/Dropbox/PYTHON/RRtools/results/_expert/1605484214924025419'
p174
atp175
sS'IMG_20150730_115647_3.jpg'
p176
(S'-3391453517305478579'
p177
(lp178
S'/mnt/4E443F99443F82AF/Dropbox/PYTHON/RRtools/results/_expert/-3391453517305478579'
p179
atp180
sS'IMG_20150730_130756.jpg'
p181
(S'3531481960556279375'
p182
(lp183
S'/mnt/4E443F99443F82AF/Dropbox/PYTHON/RRtools/results/_expert/3531481960556279375'
p184
atp185
sS'IMG_20150730_122237.jpg'
p186
(S'4863974332284386170'
p187
(lp188
S'/mnt/4E443F99443F82AF/Dropbox/PYTHON/RRtools/results/_expert/4863974332284386170'
p189
atp190
sS'IMG_20150730_131444.jpg'
p191
(S'4901588113984981586'
p192
(lp193
S'/mnt/4E443F99443F82AF/Dropbox/PYTHON/RRtools/results/_expert/4901588113984981586'
p194
atp195
sS'IMG_0310.jpg'
p196
(S'-1470648370237774765'
p197
(lp198
S'/mnt/4E443F99443F82AF/Dropbox/PYTHON/RRtools/results/_expert/-1470648370237774765'
p199
atp200
sS'IMG_0366.jpg'
p201
(S'3001439820502523988'
p202
(lp203
S'/mnt/4E443F99443F82AF/Dropbox/PYTHON/RRtools/results/_expert/3001439820502523988'
p204
atp205
sS'20150730_092757.jpg'
p206
(S'339024956891234905'
p207
(lp208
S'/mnt/4E443F99443F82AF/Dropbox/PYTHON/RRtools/results/_expert/339024956891234905'
p209
atp210
sS'IMG_0179.jpg'
p211
(S'2982357857631262810'
p212
(lp213
S'/mnt/4E443F99443F82AF/Dropbox/PYTHON/RRtools/results/_expert/2982357857631262810'
p214
atp215
sS'IMG_0257.jpg'
p216
(S'-6774517307562200483'
p217
(lp218
S'/mnt/4E443F99443F82AF/Dropbox/PYTHON/RRtools/results/_expert/-6774517307562200483'
p219
atp220
sS'IMG_20150730_122520.jpg'
p221
(S'-54854690500232091'
p222
(lp223
S'/mnt/4E443F99443F82AF/Dropbox/PYTHON/RRtools/results/_expert/-54854690500232091'
p224
atp225
sS'IMG_20150730_115646_4.jpg'
p226
(S'4607850495097834083'
p227
(lp228
S'/mnt/4E443F99443F82AF/Dropbox/PYTHON/RRtools/results/_expert/4607850495097834083'
p229
atp230
sS'IMG_0402.jpg'
p231
(S'-2332517919804305819'
p232
(lp233
S'/mnt/4E443F99443F82AF/Dropbox/PYTHON/RRtools/results/_expert/-2332517919804305819'
p234
atp235
sS'IMG_0413.jpg'
p236
(S'4548932036043168359'
p237
(lp238
S'/mnt/4E443F99443F82AF/Dropbox/PYTHON/RRtools/results/_expert/4548932036043168359'
p239
atp240
sS'IMG_20150730_130759.jpg'
p241
(S'845230744832657084'
p242
(lp243
S'/mnt/4E443F99443F82AF/Dropbox/PYTHON/RRtools/results/_expert/845230744832657084'
p244
atp245
sS'20150730_105915.jpg'
p246
(S'-5052270401957788054'
p247
(lp248
S'/mnt/4E443F99443F82AF/Dropbox/PYTHON/RRtools/results/_expert/-5052270401957788054'
p249
atp250
sS'IMG_20150730_131454.jpg'
p251
(S'-6402145633209648887'
p252
(lp253
S'/mnt/4E443F99443F82AF/Dropbox/PYTHON/RRtools/results/_expert/-6402145633209648887'
p254
atp255
sS'IMG_0308.jpg'
p256
(S'-6814256737628786580'
p257
(lp258
S'/mnt/4E443F99443F82AF/Dropbox/PYTHON/RRtools/results/_expert/-6814256737628786580'
p259
atp260
sS'20150730_092843.jpg'
p261
(S'-6886143397774626707'
p262
(lp263
S'/mnt/4E443F99443F82AF/Dropbox/PYTHON/RRtools/results/_expert/-6886143397774626707'
p264
atp265
sS'20150730_110659.jpg'
p266
(S'2107189369998381679'
p267
(lp268
S'/mnt/4E443F99443F82AF/Dropbox/PYTHON/RRtools/results/_expert/2107189369998381679'
p269
atp270
sS'IMG_0375.jpg'
p271
(S'7234442128957741168'
p272
(lp273
S'/mnt/4E443F99443F82AF/Dropbox/PYTHON/RRtools/results/_expert/7234442128957741168'
p274
atp275
sS'20150730_110656.jpg'
p276
(S'9177912808465794164'
p277
(lp278
S'/mnt/4E443F99443F82AF/Dropbox/PYTHON/RRtools/results/_expert/9177912808465794164'
p279
atp280
sS'20150730_110405.jpg'
p281
(S'-6399928593982395274'
p282
(lp283
S'/mnt/4E443F99443F82AF/Dropbox/PYTHON/RRtools/results/_expert/-6399928593982395274'
p284
atp285
sS'IMG_20150730_121756.jpg'
p286
(S'-7483325592029959047'
p287
(lp288
S'/mnt/4E443F99443F82AF/Dropbox/PYTHON/RRtools/results/_expert/-7483325592029959047'
p289
atp290
sS'20150730_105828.jpg'
p291
(S'8297444342726183035'
p292
(lp293
S'/mnt/4E443F99443F82AF/Dropbox/PYTHON/RRtools/results/_expert/8297444342726183035'
p294
atp295
sS'im_1_2.jpg'
p296
(S'5389092798641662076'
p297
(lp298
S'/mnt/4E443F99443F82AF/Dropbox/PYTHON/RRtools/results/_expert/5389092798641662076'
p299
atp300
sS'IMG_0424.jpg'
p301
(S'1687896155927191165'
p302
(lp303
S'/mnt/4E443F99443F82AF/Dropbox/PYTHON/RRtools/results/_expert/1687896155927191165'
p304
atp305
sS'IMG_20150730_115647_4.jpg'
p306
(S'7475935194573348990'
p307
(lp308
S'/mnt/4E443F99443F82AF/Dropbox/PYTHON/RRtools/results/_expert/7475935194573348990'
p309
atp310
sS'IMG_0370.jpg'
p311
(S'7002371397593464449'
p312
(lp313
S'/mnt/4E443F99443F82AF/Dropbox/PYTHON/RRtools/results/_expert/7002371397593464449'
p314
atp315
sS'IMG_20150730_115254.jpg'
p316
(S'4348645287419056773'
p317
(lp318
S'/mnt/4E443F99443F82AF/Dropbox/PYTHON/RRtools/results/_expert/4348645287419056773'
p319
atp320
sS'20150730_131916.jpg'
p321
(S'-4314335856664475002'
p322
(lp323
S'/mnt/4E443F99443F82AF/Dropbox/PYTHON/RRtools/results/_expert/-4314335856664475002'
p324
atp325
sS'IMG_20150730_115648_2.jpg'
p326
(S'-8622616251730827129'
p327
(lp328
S'/mnt/4E443F99443F82AF/Dropbox/PYTHON/RRtools/results/_expert/-8622616251730827129'
p329
atp330
sS'IMG_0406.jpg'
p331
(S'-2347302739583891319'
p332
(lp333
S'/mnt/4E443F99443F82AF/Dropbox/PYTHON/RRtools/results/_expert/-2347302739583891319'
p334
atp335
sS'IMG_0403.jpg'
p336
(S'7671264285274590232'
p337
(lp338
S'/mnt/4E443F99443F82AF/Dropbox/PYTHON/RRtools/results/_expert/7671264285274590232'
p339
atp340
sS'IMG_0409.jpg'
p341
(S'-4539410850459786094'
p342
(lp343
S'/mnt/4E443F99443F82AF/Dropbox/PYTHON/RRtools/results/_expert/-4539410850459786094'
p344
atp345
sS'20150730_105845.jpg'
p346
(S'-8859739099448096108'
p347
(lp348
S'/mnt/4E443F99443F82AF/Dropbox/PYTHON/RRtools/results/_expert/-8859739099448096108'
p349
atp350
sS'IMG_0248.jpg'
p351
(S'2336852327476533405'
p352
(lp353
S'/mnt/4E443F99443F82AF/Dropbox/PYTHON/RRtools/results/_expert/2336852327476533405'
p354
atp355
sS'20150730_132900.jpg'
p356
(S'-5890726763323730786'
p357
(lp358
S'/mnt/4E443F99443F82AF/Dropbox/PYTHON/RRtools/results/_expert/-5890726763323730786'
p359
atp360
sS'IMG_20150730_121804.jpg'
p361
(S'-5957309881925372765'
p362
(lp363
S'/mnt/4E443F99443F82AF/Dropbox/PYTHON/RRtools/results/_expert/-5957309881925372765'
p364
atp365
sS'IMG_0369.jpg'
p366
(S'315188604778901671'
p367
(lp368
S'/mnt/4E443F99443F82AF/Dropbox/PYTHON/RRtools/results/_expert/315188604778901671'
p369
atp370
sS'IMG_20150730_115646_3.jpg'
p371
(S'839905226666111144'
p372
(lp373
S'/mnt/4E443F99443F82AF/Dropbox/PYTHON/RRtools/results/_expert/839905226666111144'
p374
atp375
sS'IMG_20150730_122200.jpg'
p376
(S'-1144649552723483108'
p377
(lp378
S'/mnt/4E443F99443F82AF/Dropbox/PYTHON/RRtools/results/_expert/-1144649552723483108'
p379
atp380
sS'IMG_20150730_121804_2.jpg'
p381
(S'-2564877291449755478'
p382
(lp383
S'/mnt/4E443F99443F82AF/Dropbox/PYTHON/RRtools/results/_expert/-2564877291449755478'
p384
atp385
sS'IMG_0425.jpg'
p386
(S'-6755065712671464272'
p387
(lp388
S'/mnt/4E443F99443F82AF/Dropbox/PYTHON/RRtools/results/_expert/-6755065712671464272'
p389
atp390
sS'20150730_105901.jpg'
p391
(S'7827044501736669361'
p392
(lp393
S'/mnt/4E443F99443F82AF/Dropbox/PYTHON/RRtools/results/_expert/7827044501736669361'
p394
atp395
sS'IMG_20150730_121801.jpg'
p396
(S'3596923679180554418'
p397
(lp398
S'/mnt/4E443F99443F82AF/Dropbox/PYTHON/RRtools/results/_expert/3596923679180554418'
p399
atp400
sS'IMG_0405.jpg'
p401
(S'-8351036944642787810'
p402
(lp403
S'/mnt/4E443F99443F82AF/Dropbox/PYTHON/RRtools/results/_expert/-8351036944642787810'
p404
atp405
sS'IMG_20150730_115646_5.jpg'
p406
(S'-5395915710013062474'
p407
(lp408
S'/mnt/4E443F99443F82AF/Dropbox/PYTHON/RRtools/results/_expert/-5395915710013062474'
p409
atp410
sS'IMG_20150730_105632.jpg'
p411
(S'-4438044741159217992'
p412
(lp413
S'/mnt/4E443F99443F82AF/Dropbox/PYTHON/RRtools/results/_expert/-4438044741159217992'
p414
atp415
sS'IMG_0309.jpg'
p416
(S'1628689130713867961'
p417
(lp418
S'/mnt/4E443F99443F82AF/Dropbox/PYTHON/RRtools/results/_expert/1628689130713867961'
p419
atp420
sS'20150730_110650.jpg'
p421
(S'6753485964961621178'
p422
(lp423
S'/mnt/4E443F99443F82AF/Dropbox/PYTHON/RRtools/results/_expert/6753485964961621178'
p424
atp425
sS'IMG_0379.jpg'
p426
(S'3423008035798740668'
p427
(lp428
S'/mnt/4E443F99443F82AF/Dropbox/PYTHON/RRtools/results/_expert/3423008035798740668'
p429
atp430
sS'IMG_20150730_122225.jpg'
p431
(S'-4239073373486152821'
p432
(lp433
S'/mnt/4E443F99443F82AF/Dropbox/PYTHON/RRtools/results/_expert/-4239073373486152821'
p434
atp435
sS'IMG_20150730_134219.jpg'
p436
(S'-6123677903345542975'
p437
(lp438
S'/mnt/4E443F99443F82AF/Dropbox/PYTHON/RRtools/results/_expert/-6123677903345542975'
p439
atp440
sS'IMG_20150730_115301.jpg'
p441
(S'-503627787116877194'
p442
(lp443
S'/mnt/4E443F99443F82AF/Dropbox/PYTHON/RRtools/results/_expert/-503627787116877194'
p444
atp445
sS'IMG_20150730_130706.jpg'
p446
(S'-716857427831937336'
p447
(lp448
S'/mnt/4E443F99443F82AF/Dropbox/PYTHON/RRtools/results/_expert/-716857427831937336'
p449
atp450
sS'IMG_0260.jpg'
p451
(S'1866921607760067275'
p452
(lp453
S'/mnt/4E443F99443F82AF/Dropbox/PYTHON/RRtools/results/_expert/1866921607760067275'
p454
atp455
sS'20150730_132904.jpg'
p456
(S'2784305836639201058'
p457
(lp458
S'/mnt/4E443F99443F82AF/Dropbox/PYTHON/RRtools/results/_expert/2784305836639201058'
p459
atp460
sS'IMG_20150730_115645_2.jpg'
p461
(S'-3181783550548299058'
p462
(lp463
S'/mnt/4E443F99443F82AF/Dropbox/PYTHON/RRtools/results/_expert/-3181783550548299058'
p464
atp465
sS'IMG_0430.jpg'
p466
(S'5019456389283112146'
p467
(lp468
S'/mnt/4E443F99443F82AF/Dropbox/PYTHON/RRtools/results/_expert/5019456389283112146'
p469
atp470
sS'IMG_0421.jpg'
p471
(S'-1876442384551945004'
p472
(lp473
S'/mnt/4E443F99443F82AF/Dropbox/PYTHON/RRtools/results/_expert/-1876442384551945004'
p474
atp475
sS'IMG_20150730_125402.jpg'
p476
(S'-8003537568821096667'
p477
(lp478
S'/mnt/4E443F99443F82AF/Dropbox/PYTHON/RRtools/results/_expert/-8003537568821096667'
p479
atp480
sS'IMG_0269.jpg'
p481
(S'5881048793812175062'
p482
(lp483
S'/mnt/4E443F99443F82AF/Dropbox/PYTHON/RRtools/results/_expert/5881048793812175062'
p484
atp485
sS'IMG_0410.jpg'
p486
(S'-1440105349508142888'
p487
(lp488
S'/mnt/4E443F99443F82AF/Dropbox/PYTHON/RRtools/results/_expert/-1440105349508142888'
p489
atp490
sS'20150730_131915.jpg'
p491
(S'8128610011730180017'
p492
(lp493
S'/mnt/4E443F99443F82AF/Dropbox/PYTHON/RRtools/results/_expert/8128610011730180017'
p494
atp495
sS'20150730_132857.jpg'
p496
(S'7959978838073436379'
p497
(lp498
S'/mnt/4E443F99443F82AF/Dropbox/PYTHON/RRtools/results/_expert/7959978838073436379'
p499
atp500
sS'20150730_092846.jpg'
p501
(S'-7118406130418905380'
p502
(lp503
S'/mnt/4E443F99443F82AF/Dropbox/PYTHON/RRtools/results/_expert/-7118406130418905380'
p504
atp505
sS'IMG_20150730_122502.jpg'
p506
(S'6218160180730828509'
p507
(lp508
S'/mnt/4E443F99443F82AF/Dropbox/PYTHON/RRtools/results/_expert/6218160180730828509'
p509
atp510
sS'20150730_110706.jpg'
p511
(S'-2358624792886162210'
p512
(lp513
S'/mnt/4E443F99443F82AF/Dropbox/PYTHON/RRtools/results/_expert/-2358624792886162210'
p514
atp515
sS'20150730_092751.jpg'
p516
(S'-3211474399155795745'
p517
(lp518
S'/mnt/4E443F99443F82AF/Dropbox/PYTHON/RRtools/results/_expert/-3211474399155795745'
p519
atp520
sS'20150730_110645.jpg'
p521
(S'3877929266618061024'
p522
(lp523
S'/mnt/4E443F99443F82AF/Dropbox/PYTHON/RRtools/results/_expert/3877929266618061024'
p524
atp525
sS'IMG_0249.jpg'
p526
(S'-6106109541122121776'
p527
(lp528
S'/mnt/4E443F99443F82AF/Dropbox/PYTHON/RRtools/results/_expert/-6106109541122121776'
p529
atp530
sS'IMG_0365.jpg'
p531
(S'329957424558487267'
p532
(lp533
S'/mnt/4E443F99443F82AF/Dropbox/PYTHON/RRtools/results/_expert/329957424558487267'
p534
atp535
sS'IMG_20150730_121804_1.jpg'
p536
(S'4999757250857383653'
p537
(lp538
S'/mnt/4E443F99443F82AF/Dropbox/PYTHON/RRtools/results/_expert/4999757250857383653'
p539
atp540
sS'20150730_105842.jpg'
p541
(S'-2406440250128229657'
p542
(lp543
S'/mnt/4E443F99443F82AF/Dropbox/PYTHON/RRtools/results/_expert/-2406440250128229657'
p544
atp545
sS'IMG_20150730_115649_5.jpg'
p546
(S'3808503725113933033'
p547
(lp548
S'/mnt/4E443F99443F82AF/Dropbox/PYTHON/RRtools/results/_expert/3808503725113933033'
p549
atp550
sS'IMG_20150730_115648_3.jpg'
p551
(S'-179654383100171542'
p552
(lp553
S'/mnt/4E443F99443F82AF/Dropbox/PYTHON/RRtools/results/_expert/-179654383100171542'
p554
atp555
sS'20150730_105818.jpg'
p556
(S'2750413248422585810'
p557
(lp558
S'/mnt/4E443F99443F82AF/Dropbox/PYTHON/RRtools/results/_expert/2750413248422585810'
p559
atp560
sS'IMG_20150730_125408.jpg'
p561
(S'-2879004324873195281'
p562
(lp563
S'/mnt/4E443F99443F82AF/Dropbox/PYTHON/RRtools/results/_expert/-2879004324873195281'
p564
atp565
sS'IMG_0418.jpg'
p566
(S'2356559923903272176'
p567
(lp568
S'/mnt/4E443F99443F82AF/Dropbox/PYTHON/RRtools/results/_expert/2356559923903272176'
p569
atp570
sS'IMG_20150730_115650_3.jpg'
p571
(S'4946658159615296757'
p572
(lp573
S'/mnt/4E443F99443F82AF/Dropbox/PYTHON/RRtools/results/_expert/4946658159615296757'
p574
atp575
sS'IMG_0373.jpg'
p576
(S'998605192278567670'
p577
(lp578
S'/mnt/4E443F99443F82AF/Dropbox/PYTHON/RRtools/results/_expert/998605192278567670'
p579
atp580
sS'IMG_0262.jpg'
p581
(S'-572290055779691735'
p582
(lp583
S'/mnt/4E443F99443F82AF/Dropbox/PYTHON/RRtools/results/_expert/-572290055779691735'
p584
atp585
sS'IMG_0182.jpg'
p586
(S'3395900402276696316'
p587
(lp588
S'/mnt/4E443F99443F82AF/Dropbox/PYTHON/RRtools/results/_expert/3395900402276696316'
p589
atp590
sS'IMG_20150730_115649_4.jpg'
p591
(S'-6195294479996963300'
p592
(lp593
S'/mnt/4E443F99443F82AF/Dropbox/PYTHON/RRtools/results/_expert/-6195294479996963300'
p594
atp595
sS'IMG_0361.jpg'
p596
(S'9005182025577420543'
p597
(lp598
S'/mnt/4E443F99443F82AF/Dropbox/PYTHON/RRtools/results/_expert/9005182025577420543'
p599
atp600
sS'IMG_20150730_134225.jpg'
p601
(S'4270323839705596288'
p602
(lp603
S'/mnt/4E443F99443F82AF/Dropbox/PYTHON/RRtools/results/_expert/4270323839705596288'
p604
atp605
sS'IMG_20150730_115650_4.jpg'
p606
(S'-2632729202215427322'
p607
(lp608
S'/mnt/4E443F99443F82AF/Dropbox/PYTHON/RRtools/results/_expert/-2632729202215427322'
p609
atp610
sS'IMG_20150730_115645.jpg'
p611
(S'-1079893365724117241'
p612
(lp613
S'/mnt/4E443F99443F82AF/Dropbox/PYTHON/RRtools/results/_expert/-1079893365724117241'
p614
atp615
sS'IMG_0428.jpg'
p616
(S'-2123553937231809271'
p617
(lp618
S'/mnt/4E443F99443F82AF/Dropbox/PYTHON/RRtools/results/_expert/-2123553937231809271'
p619
atp620
sS'20150730_131823.jpg'
p621
(S'2388100037569949451'
p622
(lp623
S'/mnt/4E443F99443F82AF/Dropbox/PYTHON/RRtools/results/_expert/2388100037569949451'
p624
atp625
sS'20150730_110545.jpg'
p626
(S'-7279614676622438641'
p627
(lp628
S'/mnt/4E443F99443F82AF/Dropbox/PYTHON/RRtools/results/_expert/-7279614676622438641'
p629
atp630
sS'IMG_0173.jpg'
p631
(S'8107147102859165456'
p632
(lp633
S'/mnt/4E443F99443F82AF/Dropbox/PYTHON/RRtools/results/_expert/8107147102859165456'
p634
atp635
sS'IMG_20150730_115651.jpg'
p636
(S'-5299000489475228456'
p637
(lp638
S'/mnt/4E443F99443F82AF/Dropbox/PYTHON/RRtools/results/_expert/-5299000489475228456'
p639
atp640
sS'IMG_0427.jpg'
p641
(S'-4315662048107704046'
p642
(lp643
S'/mnt/4E443F99443F82AF/Dropbox/PYTHON/RRtools/results/_expert/-4315662048107704046'
p644
atp645
sS'IMG_0250.jpg'
p646
(S'-3006828040410479338'
p647
(lp648
S'/mnt/4E443F99443F82AF/Dropbox/PYTHON/RRtools/results/_expert/-3006828040410479338'
p649
atp650
sS'IMG_20150730_122140.jpg'
p651
(S'-8783858460463883497'
p652
(lp653
S'/mnt/4E443F99443F82AF/Dropbox/PYTHON/RRtools/results/_expert/-8783858460463883497'
p654
atp655
sS'IMG_0243.jpg'
p656
(S'7216101288895529242'
p657
(lp658
S'/mnt/4E443F99443F82AF/Dropbox/PYTHON/RRtools/results/_expert/7216101288895529242'
p659
atp660
sS'IMG_0380.jpg'
p661
(S'4777374746884818204'
p662
(lp663
S'/mnt/4E443F99443F82AF/Dropbox/PYTHON/RRtools/results/_expert/4777374746884818204'
p664
atp665
sS'IMG_0176.jpg'
p666
(S'7874820369958886689'
p667
(lp668
S'/mnt/4E443F99443F82AF/Dropbox/PYTHON/RRtools/results/_expert/7874820369958886689'
p669
atp670
sS'20150730_110711.jpg'
p671
(S'-2794961827705963742'
p672
(lp673
S'/mnt/4E443F99443F82AF/Dropbox/PYTHON/RRtools/results/_expert/-2794961827705963742'
p674
atp675
sS'20150730_105830.jpg'
p676
(S'2280482528706119460'
p677
(lp678
S'/mnt/4E443F99443F82AF/Dropbox/PYTHON/RRtools/results/_expert/2280482528706119460'
p679
atp680
sS'IMG_20150730_122216.jpg'
p681
(S'4626130343932196133'
p682
(lp683
S'/mnt/4E443F99443F82AF/Dropbox/PYTHON/RRtools/results/_expert/4626130343932196133'
p684
atp685
sS'20150730_110705.jpg'
p686
(S'-8362390997945058519'
p687
(lp688
S'/mnt/4E443F99443F82AF/Dropbox/PYTHON/RRtools/results/_expert/-8362390997945058519'
p689
atp690
sS'IMG_0404.jpg'
p691
(S'91908923699866923'
p692
(lp693
S'/mnt/4E443F99443F82AF/Dropbox/PYTHON/RRtools/results/_expert/91908923699866923'
p694
atp695
sS'IMG_20150730_115649_2.jpg'
p696
(S'-8634434143040721358'
p697
(lp698
S'/mnt/4E443F99443F82AF/Dropbox/PYTHON/RRtools/results/_expert/-8634434143040721358'
p699
atp700
sS'IMG_20150730_115647_1.jpg'
p701
(S'-5845378000096821969'
p702
(lp703
S'/mnt/4E443F99443F82AF/Dropbox/PYTHON/RRtools/results/_expert/-5845378000096821969'
p704
atp705
sS'IMG_20150730_130809.jpg'
p706
(S'-7627371852762032336'
p707
(lp708
S'/mnt/4E443F99443F82AF/Dropbox/PYTHON/RRtools/results/_expert/-7627371852762032336'
p709
atp710
sS'IMG_20150730_105748.jpg'
p711
(S'-6471166131511394030'
p712
(lp713
S'/mnt/4E443F99443F82AF/Dropbox/PYTHON/RRtools/results/_expert/-6471166131511394030'
p714
atp715
sS'IMG_20150730_125339.jpg'
p716
(S'-3107093660536779468'
p717
(lp718
S'/mnt/4E443F99443F82AF/Dropbox/PYTHON/RRtools/results/_expert/-3107093660536779468'
p719
atp720
sS'20150730_131816.jpg'
p721
(S'571836277146188087'
p722
(lp723
S'/mnt/4E443F99443F82AF/Dropbox/PYTHON/RRtools/results/_expert/571836277146188087'
p724
atp725
sS'IMG_0267.jpg'
p726
(S'8320220456823932728'
p727
(lp728
S'/mnt/4E443F99443F82AF/Dropbox/PYTHON/RRtools/results/_expert/8320220456823932728'
p729
atp730
sS'20150730_092756.jpg'
p731
(S'8781938824977889132'
p732
(lp733
S'/mnt/4E443F99443F82AF/Dropbox/PYTHON/RRtools/results/_expert/8781938824977889132'
p734
atp735
sS'20150730_110717.jpg'
p736
(S'-9030782764385137348'
p737
(lp738
S'/mnt/4E443F99443F82AF/Dropbox/PYTHON/RRtools/results/_expert/-9030782764385137348'
p739
atp740
sS'IMG_0374.jpg'
p741
(S'-2769340076153155267'
p742
(lp743
S'/mnt/4E443F99443F82AF/Dropbox/PYTHON/RRtools/results/_expert/-2769340076153155267'
p744
atp745
sS'IMG_0247.jpg'
p746
(S'-6352275458486506178'
p747
(lp748
S'/mnt/4E443F99443F82AF/Dropbox/PYTHON/RRtools/results/_expert/-6352275458486506178'
p749
atp750
sS'IMG_0431.jpg'
p751
(S'-4984325816051784897'
p752
(lp753
S'/mnt/4E443F99443F82AF/Dropbox/PYTHON/RRtools/results/_expert/-4984325816051784897'
p754
atp755
sS'20150730_110657.jpg'
p756
(S'734966940123139393'
p757
(lp758
S'/mnt/4E443F99443F82AF/Dropbox/PYTHON/RRtools/results/_expert/734966940123139393'
p759
atp760
sS'20150730_110714.jpg'
p761
(S'-6359556369977102965'
p762
(lp763
S'/mnt/4E443F99443F82AF/Dropbox/PYTHON/RRtools/results/_expert/-6359556369977102965'
p764
atp765
sS'IMG_0244.jpg'
p766
(S'-348541253427609687'
p767
(lp768
S'/mnt/4E443F99443F82AF/Dropbox/PYTHON/RRtools/results/_expert/-348541253427609687'
p769
atp770
sS'20150730_110539.jpg'
p771
(S'-8604756031875180218'
p772
(lp773
S'/mnt/4E443F99443F82AF/Dropbox/PYTHON/RRtools/results/_expert/-8604756031875180218'
p774
atp775
sS'IMG_0387.jpg'
p776
(S'-7665563121269835961'
p777
(lp778
S'/mnt/4E443F99443F82AF/Dropbox/PYTHON/RRtools/results/_expert/-7665563121269835961'
p779
atp780
sS'IMG_20150730_134231.jpg'
p781
(S'2499599943117916983'
p782
(lp783
S'/mnt/4E443F99443F82AF/Dropbox/PYTHON/RRtools/results/_expert/2499599943117916983'
p784
atp785
sS'IMG_20150730_125216.jpg'
p786
(S'1771966788343785804'
p787
(lp788
S'/mnt/4E443F99443F82AF/Dropbox/PYTHON/RRtools/results/_expert/1771966788343785804'
p789
atp790
sS'20150730_132929.jpg'
p791
(S'-3443257171283778227'
p792
(lp793
S'/mnt/4E443F99443F82AF/Dropbox/PYTHON/RRtools/results/_expert/-3443257171283778227'
p794
atp795
sS'IMG_20150730_115650.jpg'
p796
(S'4704765715635667853'
p797
(lp798
S'/mnt/4E443F99443F82AF/Dropbox/PYTHON/RRtools/results/_expert/4704765715635667853'
p799
atp800
sS'IMG_0259.jpg'
p801
(S'-7020699224926584821'
p802
(lp803
S'/mnt/4E443F99443F82AF/Dropbox/PYTHON/RRtools/results/_expert/-7020699224926584821'
p804
atp805
sS'IMG_0359.jpg'
p806
(S'-8996903084076134574'
p807
(lp808
S'/mnt/4E443F99443F82AF/Dropbox/PYTHON/RRtools/results/_expert/-8996903084076134574'
p809
atp810
sS'IMG_20150730_125354.jpg'
p811
(S'-7096544690995777821'
p812
(lp813
S'/mnt/4E443F99443F82AF/Dropbox/PYTHON/RRtools/results/_expert/-7096544690995777821'
p814
atp815
sS'IMG_20150730_130659.jpg'
p816
(S'-8722693138065739947'
p817
(lp818
S'/mnt/4E443F99443F82AF/Dropbox/PYTHON/RRtools/results/_expert/-8722693138065739947'
p819
atp820
sS'IMG_20150730_105655.jpg'
p821
(S'-5331677147159733415'
p822
(lp823
S'/mnt/4E443F99443F82AF/Dropbox/PYTHON/RRtools/results/_expert/-5331677147159733415'
p824
atp825
sS'IMG_20150730_130803.jpg'
p826
(S'3516578050859829594'
p827
(lp828
S'/mnt/4E443F99443F82AF/Dropbox/PYTHON/RRtools/results/_expert/3516578050859829594'
p829
atp830
sS'IMG_20150730_122504.jpg'
p831
(S'2667660824683797851'
p832
(lp833
S'/mnt/4E443F99443F82AF/Dropbox/PYTHON/RRtools/results/_expert/2667660824683797851'
p834
atp835
sS'IMG_20150730_115642.jpg'
p836
(S'4923912839830780252'
p837
(lp838
S'/mnt/4E443F99443F82AF/Dropbox/PYTHON/RRtools/results/_expert/4923912839830780252'
p839
atp840
sS'20150730_132917.jpg'
p841
(S'3444391673811084638'
p842
(lp843
S'/mnt/4E443F99443F82AF/Dropbox/PYTHON/RRtools/results/_expert/3444391673811084638'
p844
atp845
sS'IMG_20150730_130723.jpg'
p846
(S'-6929595615735330977'
p847
(lp848
S'/mnt/4E443F99443F82AF/Dropbox/PYTHON/RRtools/results/_expert/-6929595615735330977'
p849
atp850
sS'IMG_0389.jpg'
p851
(S'7230681596168684385'
p852
(lp853
S'/mnt/4E443F99443F82AF/Dropbox/PYTHON/RRtools/results/_expert/7230681596168684385'
p854
atp855
sS'20150730_132932.jpg'
p856
(S'-2797876153379479195'
p857
(lp858
S'/mnt/4E443F99443F82AF/Dropbox/PYTHON/RRtools/results/_expert/-2797876153379479195'
p859
atp860
sS'IMG_20150730_115251.jpg'
p861
(S'7913239829434195260'
p862
(lp863
S'/mnt/4E443F99443F82AF/Dropbox/PYTHON/RRtools/results/_expert/7913239829434195260'
p864
atp865
sS'IMG_20150730_122154.jpg'
p866
(S'6331509381153749356'
p867
(lp868
S'/mnt/4E443F99443F82AF/Dropbox/PYTHON/RRtools/results/_expert/6331509381153749356'
p869
atp870
sS'IMG_0360.jpg'
p871
(S'562220156946764946'
p872
(lp873
S'/mnt/4E443F99443F82AF/Dropbox/PYTHON/RRtools/results/_expert/562220156946764946'
p874
atp875
sS'IMG_20150730_115649_3.jpg'
p876
(S'1369348062070175087'
p877
(lp878
S'/mnt/4E443F99443F82AF/Dropbox/PYTHON/RRtools/results/_expert/1369348062070175087'
p879
atp880
sS'IMG_0432.jpg'
p881
(S'2580308726255354224'
p882
(lp883
S'/mnt/4E443F99443F82AF/Dropbox/PYTHON/RRtools/results/_expert/2580308726255354224'
p884
atp885
sS'20150730_105912.jpg'
p886
(S'-1284581134838066831'
p887
(lp888
S'/mnt/4E443F99443F82AF/Dropbox/PYTHON/RRtools/results/_expert/-1284581134838066831'
p889
atp890
sS'20150730_132852.jpg'
p891
(S'-6922170693620976782'
p892
(lp893
S'/mnt/4E443F99443F82AF/Dropbox/PYTHON/RRtools/results/_expert/-6922170693620976782'
p894
atp895
sS'IMG_0388.jpg'
p896
(S'-6105624419593073804'
p897
(lp898
S'/mnt/4E443F99443F82AF/Dropbox/PYTHON/RRtools/results/_expert/-6105624419593073804'
p899
atp900
sS'20150730_092934.jpg'
p901
(S'5850750303258129782'
p902
(lp903
S'/mnt/4E443F99443F82AF/Dropbox/PYTHON/RRtools/results/_expert/5850750303258129782'
p904
atp905
sS'IMG_0271.jpg'
p906
(S'8763084383147126761'
p907
(lp908
S'/mnt/4E443F99443F82AF/Dropbox/PYTHON/RRtools/results/_expert/8763084383147126761'
p909
atp910
sS'IMG_0184.jpg'
p911
(S'956744739232938362'
p912
(lp913
S'/mnt/4E443F99443F82AF/Dropbox/PYTHON/RRtools/results/_expert/956744739232938362'
p914
atp915
sS'IMG_0407.jpg'
p916
(S'7656495465527005052'
p917
(lp918
S'/mnt/4E443F99443F82AF/Dropbox/PYTHON/RRtools/results/_expert/7656495465527005052'
p919
atp920
sS'IMG_0426.jpg'
p921
(S'4127299820522951551'
p922
(lp923
S'/mnt/4E443F99443F82AF/Dropbox/PYTHON/RRtools/results/_expert/4127299820522951551'
p924
atp925
sS'IMG_20150730_115645_4.jpg'
p926
(S'3054069386162874240'
p927
(lp928
S'/mnt/4E443F99443F82AF/Dropbox/PYTHON/RRtools/results/_expert/3054069386162874240'
p929
atp930
sS'20150730_132936.jpg'
p931
(S'2080491173204037505'
p932
(lp933
S'/mnt/4E443F99443F82AF/Dropbox/PYTHON/RRtools/results/_expert/2080491173204037505'
p934
atp935
sS'IMG_0306.jpg'
p936
(S'-563418979906026110'
p937
(lp938
S'/mnt/4E443F99443F82AF/Dropbox/PYTHON/RRtools/results/_expert/-563418979906026110'
p939
atp940
sS'IMG_0367.jpg'
p941
(S'-2109254238981271743'
p942
(lp943
S'/mnt/4E443F99443F82AF/Dropbox/PYTHON/RRtools/results/_expert/-2109254238981271743'
p944
atp945
sS'IMG_20150730_115644_2.jpg'
p946
(S'2610411530191532339'
p947
(lp948
S'/mnt/4E443F99443F82AF/Dropbox/PYTHON/RRtools/results/_expert/2610411530191532339'
p949
atp950
sS'IMG_0273.jpg'
p951
(S'-7244448027278666869'
p952
(lp953
S'/mnt/4E443F99443F82AF/Dropbox/PYTHON/RRtools/results/_expert/-7244448027278666869'
p954
atp955
sS'20150730_131836.jpg'
p956
(S'-9162489260768542707'
p957
(lp958
S'/mnt/4E443F99443F82AF/Dropbox/PYTHON/RRtools/results/_expert/-9162489260768542707'
p959
atp960
sS'IMG_20150730_115649_1.jpg'
p961
(S'3823272544861518221'
p962
(lp963
S'/mnt/4E443F99443F82AF/Dropbox/PYTHON/RRtools/results/_expert/3823272544861518221'
p964
atp965
sS'IMG_20150730_105800.jpg'
p966
(S'-2907350254916058131'
p967
(lp968
S'/mnt/4E443F99443F82AF/Dropbox/PYTHON/RRtools/results/_expert/-2907350254916058131'
p969
atp970
sS'IMG_0256.jpg'
p971
(S'3229264897804696464'
p972
(lp973
S'/mnt/4E443F99443F82AF/Dropbox/PYTHON/RRtools/results/_expert/3229264897804696464'
p974
atp975
sS'IMG_20150730_130713.jpg'
p976
(S'2836872803172251026'
p977
(lp978
S'/mnt/4E443F99443F82AF/Dropbox/PYTHON/RRtools/results/_expert/2836872803172251026'
p979
atp980
sS'IMG_0270.jpg'
p981
(S'320138514804472028'
p982
(lp983
S'/mnt/4E443F99443F82AF/Dropbox/PYTHON/RRtools/results/_expert/320138514804472028'
p984
atp985
sS'IMG_0411.jpg'
p986
(S'7002856518866511653'
p987
(lp988
S'/mnt/4E443F99443F82AF/Dropbox/PYTHON/RRtools/results/_expert/7002856518866511653'
p989
atp990
sS'IMG_20150730_115650_1.jpg'
p991
(S'7385869823155055511'
p992
(lp993
S'/mnt/4E443F99443F82AF/Dropbox/PYTHON/RRtools/results/_expert/7385869823155055511'
p994
atp995
sS'IMG_20150730_125344.jpg'
p996
(S'9129918842105125212'
p997
(lp998
S'/mnt/4E443F99443F82AF/Dropbox/PYTHON/RRtools/results/_expert/9129918842105125212'
p999
atp1000
sS'IMG_0386.jpg'
p1001
(S'2338219083841060250'
p1002
(lp1003
S'/mnt/4E443F99443F82AF/Dropbox/PYTHON/RRtools/results/_expert/2338219083841060250'
p1004
atp1005
sS'IMG_0307.jpg'
p1006
(S'7879542888468628719'
p1007
(lp1008
S'/mnt/4E443F99443F82AF/Dropbox/PYTHON/RRtools/results/_expert/7879542888468628719'
p1009
atp1010
sS'20150730_092749.jpg'
p1011
(S'5630686569982774172'
p1012
(lp1013
S'/mnt/4E443F99443F82AF/Dropbox/PYTHON/RRtools/results/_expert/5630686569982774172'
p1014
atp1015
sS'20150730_105821.jpg'
p1016
(S'9176709304349179014'
p1017
(lp1018
S'/mnt/4E443F99443F82AF/Dropbox/PYTHON/RRtools/results/_expert/9176709304349179014'
p1019
atp1020
sS'IMG_0253.jpg'
p1021
(S'2996938164904417697'
p1022
(lp1023
S'/mnt/4E443F99443F82AF/Dropbox/PYTHON/RRtools/results/_expert/2996938164904417697'
p1024
atp1025
sS'IMG_20150730_115645_3.jpg'
p1026
(S'6822014654818597787'
p1027
(lp1028
S'/mnt/4E443F99443F82AF/Dropbox/PYTHON/RRtools/results/_expert/6822014654818597787'
p1029
atp1030
sS'IMG_20150730_115644_3.jpg'
p1031
(S'-7393418675175364282'
p1032
(lp1033
S'/mnt/4E443F99443F82AF/Dropbox/PYTHON/RRtools/results/_expert/-7393418675175364282'
p1034
atp1035
sS'IMG_20150730_134254.jpg'
p1036
(S'1871786360292947356'
p1037
(lp1038
S'/mnt/4E443F99443F82AF/Dropbox/PYTHON/RRtools/results/_expert/1871786360292947356'
p1039
atp1040
sS'IMG_20150730_115646_1.jpg'
p1041
(S'3279052889469868458'
p1042
(lp1043
S'/mnt/4E443F99443F82AF/Dropbox/PYTHON/RRtools/results/_expert/3279052889469868458'
p1044
atp1045
sS'IMG_20150730_122229.jpg'
p1046
(S'-6924450954134295225'
p1047
(lp1048
S'/mnt/4E443F99443F82AF/Dropbox/PYTHON/RRtools/results/_expert/-6924450954134295225'
p1049
atp1050
sS'20150730_131834.jpg'
p1051
(S'6844851148377248687'
p1052
(lp1053
S'/mnt/4E443F99443F82AF/Dropbox/PYTHON/RRtools/results/_expert/6844851148377248687'
p1054
atp1055
sS'20150730_105822.jpg'
p1056
(S'3172911099034282417'
p1057
(lp1058
S'/mnt/4E443F99443F82AF/Dropbox/PYTHON/RRtools/results/_expert/3172911099034282417'
p1059
atp1060
sS'_restored_IMG_0173.jpg'
p1061
(S'609255982872486322'
p1062
(lp1063
S'/mnt/4E443F99443F82AF/Dropbox/PYTHON/RRtools/results/_expert/609255982872486322'
p1064
atp1065
sS'IMG_0252.jpg'
p1066
(S'8107632224132212660'
p1067
(lp1068
S'/mnt/4E443F99443F82AF/Dropbox/PYTHON/RRtools/results/_expert/8107632224132212660'
p1069
atp1070
sS'IMG_0180.jpg'
p1071
(S'5835112065816455070'
p1072
(lp1073
S'/mnt/4E443F99443F82AF/Dropbox/PYTHON/RRtools/results/_expert/5835112065816455070'
p1074
atp1075
sS'IMG_0364.jpg'
p1076
(S'-8113020444040168010'
p1077
(lp1078
S'/mnt/4E443F99443F82AF/Dropbox/PYTHON/RRtools/results/_expert/-8113020444040168010'
p1079
atp1080
sS'20150730_105921.jpg'
p1081
(S'-4160113833197627465'
p1082
(lp1083
S'/mnt/4E443F99443F82AF/Dropbox/PYTHON/RRtools/results/_expert/-4160113833197627465'
p1084
atp1085
sS'IMG_20150730_115650_2.jpg'
p1086
(S'-5057124045495599688'
p1087
(lp1088
S'/mnt/4E443F99443F82AF/Dropbox/PYTHON/RRtools/results/_expert/-5057124045495599688'
p1089
atp1090
sS'IMG_0412.jpg'
p1091
(S'-3894029832299486278'
p1092
(lp1093
S'/mnt/4E443F99443F82AF/Dropbox/PYTHON/RRtools/results/_expert/-3894029832299486278'
p1094
atp1095
sS'IMG_0419.jpg'
p1096
(S'-7647222281207624259'
p1097
(lp1098
S'/mnt/4E443F99443F82AF/Dropbox/PYTHON/RRtools/results/_expert/-7647222281207624259'
p1099
atp1100
sS'IMG_0382.jpg'
p1101
(S'7216586410168576446'
p1102
(lp1103
S'/mnt/4E443F99443F82AF/Dropbox/PYTHON/RRtools/results/_expert/7216586410168576446'
p1104
atp1105
sS'IMG_0358.jpg'
p1106
(S'-553941215701480001'
p1107
(lp1108
S'/mnt/4E443F99443F82AF/Dropbox/PYTHON/RRtools/results/_expert/-553941215701480001'
p1109
atp1110
sS'IMG_20150730_125212.jpg'
p1111
(S'6650318114671302080'
p1112
(lp1113
S'/mnt/4E443F99443F82AF/Dropbox/PYTHON/RRtools/results/_expert/6650318114671302080'
p1114
atp1115
sS'IMG_0420.jpg'
p1116
(S'-6987136444035740735'
p1117
(lp1118
S'/mnt/4E443F99443F82AF/Dropbox/PYTHON/RRtools/results/_expert/-6987136444035740735'
p1119
atp1120
sS'IMG_20150730_115647_5.jpg'
p1121
(S'-967010673769305781'
p1122
(lp1123
S'/mnt/4E443F99443F82AF/Dropbox/PYTHON/RRtools/results/_expert/-967010673769305781'
p1124
atp1125
sS'20150730_110548.jpg'
p1126
(S'-1522046388927926282'
p1127
(lp1128
S'/mnt/4E443F99443F82AF/Dropbox/PYTHON/RRtools/results/_expert/-1522046388927926282'
p1129
atp1130
sS'IMG_0383.jpg'
p1131
(S'-2787211794942319669'
p1132
(lp1133
S'/mnt/4E443F99443F82AF/Dropbox/PYTHON/RRtools/results/_expert/-2787211794942319669'
p1134
atp1135
sS'IMG_20150730_130654.jpg'
p1136
(S'3531702823467915124'
p1137
(lp1138
S'/mnt/4E443F99443F82AF/Dropbox/PYTHON/RRtools/results/_expert/3531702823467915124'
p1139
atp1140
sS'IMG_20150730_125349.jpg'
p1141
(S'-424346719224802355'
p1142
(lp1143
S'/mnt/4E443F99443F82AF/Dropbox/PYTHON/RRtools/results/_expert/-424346719224802355'
p1144
atp1145
sS'20150730_110552.jpg'
p1146
(S'2055503760512376783'
p1147
(lp1148
S'/mnt/4E443F99443F82AF/Dropbox/PYTHON/RRtools/results/_expert/2055503760512376783'
p1149
atp1150
sS'20150730_092752.jpg'
p1151
(S'7670699132502617040'
p1152
(lp1153
S'/mnt/4E443F99443F82AF/Dropbox/PYTHON/RRtools/results/_expert/7670699132502617040'
p1154
atp1155
sS'20150730_105907.jpg'
p1156
(S'-4383862635549709513'
p1157
(lp1158
S'/mnt/4E443F99443F82AF/Dropbox/PYTHON/RRtools/results/_expert/-4383862635549709513'
p1159
atp1160
sS'IMG_0377.jpg'
p1161
(S'-8773154281724052526'
p1162
(lp1163
S'/mnt/4E443F99443F82AF/Dropbox/PYTHON/RRtools/results/_expert/-8773154281724052526'
p1164
atp1165
sS'20150730_105925.jpg'
p1166
(S'5611645641060993491'
p1167
(lp1168
S'/mnt/4E443F99443F82AF/Dropbox/PYTHON/RRtools/results/_expert/5611645641060993491'
p1169
atp1170
sS'20150730_105835.jpg'
p1171
(S'7405913407489499605'
p1172
(lp1173
S'/mnt/4E443F99443F82AF/Dropbox/PYTHON/RRtools/results/_expert/7405913407489499605'
p1174
atp1175
sS'IMG_20150730_125411.jpg'
p1176
(S'1108088067753639781'
p1177
(lp1178
S'/mnt/4E443F99443F82AF/Dropbox/PYTHON/RRtools/results/_expert/1108088067753639781'
p1179
atp1180
sS'IMG_0311.jpg'
p1181
(S'8533181835129121830'
p1182
(lp1183
S'/mnt/4E443F99443F82AF/Dropbox/PYTHON/RRtools/results/_expert/8533181835129121830'
p1184
atp1185
sS'IMG_0401.jpg'
p1186
(S'5217339802483247098'
p1187
(lp1188
S'/mnt/4E443F99443F82AF/Dropbox/PYTHON/RRtools/results/_expert/5217339802483247098'
p1189
atp1190
sS'IMG_20150730_115646.jpg'
p1191
(S'-8644479907551255088'
p1192
(lp1193
S'/mnt/4E443F99443F82AF/Dropbox/PYTHON/RRtools/results/_expert/-8644479907551255088'
p1194
atp1195
sS'IMG_20150730_115647.jpg'
p1196
(S'1359318297559640997'
p1197
(lp1198
S'/mnt/4E443F99443F82AF/Dropbox/PYTHON/RRtools/results/_expert/1359318297559640997'
p1199
atp1200
sS'IMG_20150730_115644_1.jpg'
p1201
(S'8614177735506429412'
p1202
(lp1203
S'/mnt/4E443F99443F82AF/Dropbox/PYTHON/RRtools/results/_expert/8614177735506429412'
p1204
atp1205
sS'IMG_20150730_115646_2.jpg'
p1206
(S'-7603056641932544027'
p1207
(lp1208
S'/mnt/4E443F99443F82AF/Dropbox/PYTHON/RRtools/results/_expert/-7603056641932544027'
p1209
atp1210
sS'IMG_20150730_115648_1.jpg'
p1211
(S'-2619058047695931928'
p1212
(lp1213
S'/mnt/4E443F99443F82AF/Dropbox/PYTHON/RRtools/results/_expert/-2619058047695931928'
p1214
atp1215
sS'IMG_20150730_122227.jpg'
p1216
(S'-1799925710458394647'
p1217
(lp1218
S'/mnt/4E443F99443F82AF/Dropbox/PYTHON/RRtools/results/_expert/-1799925710458394647'
p1219
atp1220
sS'20150730_131844.jpg'
p1221
(S'-5862749707536599214'
p1222
(lp1223
S'/mnt/4E443F99443F82AF/Dropbox/PYTHON/RRtools/results/_expert/-5862749707536599214'
p1224
atp1225
sS'20150730_131827.jpg'
p1226
(S'-2490267288757566481'
p1227
(lp1228
S'/mnt/4E443F99443F82AF/Dropbox/PYTHON/RRtools/results/_expert/-2490267288757566481'
p1229
atp1230
sS'IMG_0254.jpg'
p1231
(S'5668412560832454642'
p1232
(lp1233
S'/mnt/4E443F99443F82AF/Dropbox/PYTHON/RRtools/results/_expert/5668412560832454642'
p1234
atp1235
sS'20150730_132924.jpg'
p1236
(S'1188318604155876340'
p1237
(lp1238
S'/mnt/4E443F99443F82AF/Dropbox/PYTHON/RRtools/results/_expert/1188318604155876340'
p1239
atp1240
sS'im1_2.jpg'
p1241
(S'-2578367927654852354'
p1242
(lp1243
S'/mnt/4E443F99443F82AF/Dropbox/PYTHON/RRtools/results/_expert/-2578367927654852354'
p1244
atp1245
sS'IMG_0434.jpg'
p1246
(S'-3655528210423819274'
p1247
(lp1248
S'/mnt/4E443F99443F82AF/Dropbox/PYTHON/RRtools/results/_expert/-3655528210423819274'
p1249
atp1250
sS'IMG_20150730_125222.jpg'
p1251
(S'4044002082227905449'
p1252
(lp1253
S'/mnt/4E443F99443F82AF/Dropbox/PYTHON/RRtools/results/_expert/4044002082227905449'
p1254
atp1255
sS'IMG_20150730_130719.jpg'
p1256
(S'412501959908078584'
p1257
(lp1258
S'/mnt/4E443F99443F82AF/Dropbox/PYTHON/RRtools/results/_expert/412501959908078584'
p1259
atp1260
sS'IMG_20150730_122506.jpg'
p1261
(S'5106872487967556089'
p1262
(lp1263
S'/mnt/4E443F99443F82AF/Dropbox/PYTHON/RRtools/results/_expert/5106872487967556089'
p1264
atp1265
sS'IMG_0368.jpg'
p1266
(S'-8127773263819753478'
p1267
(lp1268
S'/mnt/4E443F99443F82AF/Dropbox/PYTHON/RRtools/results/_expert/-8127773263819753478'
p1269
atp1270
sS'IMG_0408.jpg'
p1271
(S'3903551018170869503'
p1272
(lp1273
S'/mnt/4E443F99443F82AF/Dropbox/PYTHON/RRtools/results/_expert/3903551018170869503'
p1274
atp1275
sS'IMG_0429.jpg'
p1276
(S'7880244267879087100'
p1277
(lp1278
S'/mnt/4E443F99443F82AF/Dropbox/PYTHON/RRtools/results/_expert/7880244267879087100'
p1279
atp1280
sS'IMG_0363.jpg'
p1281
(S'6565778360981660157'
p1282
(lp1283
S'/mnt/4E443F99443F82AF/Dropbox/PYTHON/RRtools/results/_expert/6565778360981660157'
p1284
atp1285
sS'IMG_0258.jpg'
p1286
(S'2983098980440312318'
p1287
(lp1288
S'/mnt/4E443F99443F82AF/Dropbox/PYTHON/RRtools/results/_expert/2983098980440312318'
p1289
atp1290
sS'IMG_20150730_121750.jpg'
p1291
(S'-5044169928986201089'
p1292
(lp1293
S'/mnt/4E443F99443F82AF/Dropbox/PYTHON/RRtools/results/_expert/-5044169928986201089'
p1294
atp1295
s.