(dp1
S'20150730_110648.jpg'
p2
(S'-8376658696195596287'
(lp3
S'/mnt/4E443F99443F82AF/Dropbox/PYTHON/RRtools/results/_expert/-8376658696195596287'
p4
atp5
sS'IMG_20150730_105626.jpg'
p6
(S'7568556092175634895'
(lp7
S'/mnt/4E443F99443F82AF/Dropbox/PYTHON/RRtools/results/_expert/7568556092175634895'
p8
atp9
sS'IMG_0390.jpg'
p10
(S'6324413841376415755'
(lp11
S'/mnt/4E443F99443F82AF/Dropbox/PYTHON/RRtools/results/_expert/6324413841376415755'
p12
atp13
sS'IMG_20150730_115651_2.jpg'
p14
(S'-6404074783062055411'
(lp15
S'/mnt/4E443F99443F82AF/Dropbox/PYTHON/RRtools/results/_expert/-6404074783062055411'
p16
atp17
sS'IMG_20150730_134235.jpg'
p18
(S'-7272159530884703213'
(lp19
S'/mnt/4E443F99443F82AF/Dropbox/PYTHON/RRtools/results/_expert/-7272159530884703213'
p20
atp21
sS'IMG_20150730_130729.jpg'
p22
(S'5266558701771462165'
(lp23
S'/mnt/4E443F99443F82AF/Dropbox/PYTHON/RRtools/results/_expert/5266558701771462165'
p24
atp25
sS'20150730_131839.jpg'
p26
(S'-6970381149892647914'
(lp27
S'/mnt/4E443F99443F82AF/Dropbox/PYTHON/RRtools/results/_expert/-6970381149892647914'
p28
atp29
sS'im_1_1.jpg'
p30
(S'-2160764923645890845'
(lp31
S'/mnt/4E443F99443F82AF/Dropbox/PYTHON/RRtools/results/_expert/-2160764923645890845'
p32
atp33
sS'IMG_20150730_122235.jpg'
p34
(S'7303185995824144920'
(lp35
S'/mnt/4E443F99443F82AF/Dropbox/PYTHON/RRtools/results/_expert/7303185995824144920'
p36
atp37
sS'IMG_0263.jpg'
p38
(S'-9015235924122346468'
(lp39
S'/mnt/4E443F99443F82AF/Dropbox/PYTHON/RRtools/results/_expert/-9015235924122346468'
p40
atp41
sS'IMG_20150730_134300.jpg'
p42
(S'-1033833099122831330'
(lp43
S'/mnt/4E443F99443F82AF/Dropbox/PYTHON/RRtools/results/_expert/-1033833099122831330'
p44
atp45
sS'IMG_20150730_115647_2.jpg'
p46
(S'5051508351069175984'
(lp47
S'/mnt/4E443F99443F82AF/Dropbox/PYTHON/RRtools/results/_expert/5051508351069175984'
p48
atp49
sS'IMG_20150730_125228.jpg'
p50
(S'-2191810854211267549'
(lp51
S'/mnt/4E443F99443F82AF/Dropbox/PYTHON/RRtools/results/_expert/-2191810854211267549'
p52
atp53
sS'IMG_20150730_115648.jpg'
p54
(S'-8398297990186871034'
(lp55
S'/mnt/4E443F99443F82AF/Dropbox/PYTHON/RRtools/results/_expert/-8398297990186871034'
p56
atp57
sS'IMG_20150730_105753.jpg'
p58
(S'6675658400574424614'
(lp59
S'/mnt/4E443F99443F82AF/Dropbox/PYTHON/RRtools/results/_expert/6675658400574424614'
p60
atp61
sS'IMG_0185.jpg'
p62
(S'-9047037465877958105'
(lp63
S'/mnt/4E443F99443F82AF/Dropbox/PYTHON/RRtools/results/_expert/-9047037465877958105'
p64
atp65
sS'IMG_0381.jpg'
p66
(S'-5226423458482078679'
(lp67
S'/mnt/4E443F99443F82AF/Dropbox/PYTHON/RRtools/results/_expert/-5226423458482078679'
p68
atp69
sS'20150730_092758.jpg'
p70
(S'-7225585585175903702'
(lp71
S'/mnt/4E443F99443F82AF/Dropbox/PYTHON/RRtools/results/_expert/-7225585585175903702'
p72
atp73
sS'IMG_20150730_115651_1.jpg'
p74
(S'-415037397254743374'
(lp75
S'/mnt/4E443F99443F82AF/Dropbox/PYTHON/RRtools/results/_expert/-415037397254743374'
p76
atp77
sS'IMG_20150730_125358.jpg'
p78
(S'1578487908743153199'
(lp79
S'/mnt/4E443F99443F82AF/Dropbox/PYTHON/RRtools/results/_expert/1578487908743153199'
p80
atp81
sS'IMG_0362.jpg'
p82
(S'-1877183507616995280'
(lp83
S'/mnt/4E443F99443F82AF/Dropbox/PYTHON/RRtools/results/_expert/-1877183507616995280'
p84
atp85
sS'IMG_20150730_115644.jpg'
p86
(S'7363052502618537522'
(lp87
S'/mnt/4E443F99443F82AF/Dropbox/PYTHON/RRtools/results/_expert/7363052502618537522'
p88
atp89
sS'IMG_0423.jpg'
p90
(S'5455841424614914614'
(lp91
S'/mnt/4E443F99443F82AF/Dropbox/PYTHON/RRtools/results/_expert/5455841424614914614'
p92
atp93
sS'20150730_131913.jpg'
p94
(S'-4082297125556198857'
(lp95
S'/mnt/4E443F99443F82AF/Dropbox/PYTHON/RRtools/results/_expert/-4082297125556198857'
p96
atp97
sS'IMG_0384.jpg'
p98
(S'3666087054121545784'
(lp99
S'/mnt/4E443F99443F82AF/Dropbox/PYTHON/RRtools/results/_expert/3666087054121545784'
p100
atp101
sS'IMG_20150730_115645_1.jpg'
p102
(S'4382866991790839865'
(lp103
S'/mnt/4E443F99443F82AF/Dropbox/PYTHON/RRtools/results/_expert/4382866991790839865'
p104
atp105
sS'20150730_110530.jpg'
p106
(S'8962979081491376699'
(lp107
S'/mnt/4E443F99443F82AF/Dropbox/PYTHON/RRtools/results/_expert/8962979081491376699'
p108
atp109
sS'IMG_0357.jpg'
p110
(S'3199259233446658620'
(lp111
S'/mnt/4E443F99443F82AF/Dropbox/PYTHON/RRtools/results/_expert/3199259233446658620'
p112
atp113
sS'IMG_0433.jpg'
p114
(S'-7423473478855542211'
(lp115
S'/mnt/4E443F99443F82AF/Dropbox/PYTHON/RRtools/results/_expert/-7423473478855542211'
p116
atp117
sS'IMG_20150730_115648_4.jpg'
p118
(S'-6183396588175068095'
(lp119
S'/mnt/4E443F99443F82AF/Dropbox/PYTHON/RRtools/results/_expert/-6183396588175068095'
p120
atp121
sS'IMG_0251.jpg'
p122
(S'5436149828188175939'
(lp123
S'/mnt/4E443F99443F82AF/Dropbox/PYTHON/RRtools/results/_expert/5436149828188175939'
p124
atp125
sS'20150730_092758(0).jpg'
p126
(S'599692609103491654'
(lp127
S'/mnt/4E443F99443F82AF/Dropbox/PYTHON/RRtools/results/_expert/599692609103491654'
p128
atp129
sS'IMG_0264.jpg'
p130
(S'-3011429718567449017'
(lp131
S'/mnt/4E443F99443F82AF/Dropbox/PYTHON/RRtools/results/_expert/-3011429718567449017'
p132
atp133
sS'im1_1.jpg'
p134
(S'4986282614684286537'
(lp135
S'/mnt/4E443F99443F82AF/Dropbox/PYTHON/RRtools/results/_expert/4986282614684286537'
p136
atp137
sS'IMG_20150730_115649.jpg'
p138
(S'1605484214924025419'
(lp139
S'/mnt/4E443F99443F82AF/Dropbox/PYTHON/RRtools/results/_expert/1605484214924025419'
p140
atp141
sS'IMG_20150730_115647_3.jpg'
p142
(S'-3391453517305478579'
(lp143
S'/mnt/4E443F99443F82AF/Dropbox/PYTHON/RRtools/results/_expert/-3391453517305478579'
p144
atp145
sS'IMG_20150730_130756.jpg'
p146
(S'3531481960556279375'
(lp147
S'/mnt/4E443F99443F82AF/Dropbox/PYTHON/RRtools/results/_expert/3531481960556279375'
p148
atp149
sS'IMG_20150730_122237.jpg'
p150
(S'4863974332284386170'
(lp151
S'/mnt/4E443F99443F82AF/Dropbox/PYTHON/RRtools/results/_expert/4863974332284386170'
p152
atp153
sS'IMG_20150730_131444.jpg'
p154
(S'4901588113984981586'
(lp155
S'/mnt/4E443F99443F82AF/Dropbox/PYTHON/RRtools/results/_expert/4901588113984981586'
p156
atp157
sS'IMG_0310.jpg'
p158
(S'-1470648370237774765'
(lp159
S'/mnt/4E443F99443F82AF/Dropbox/PYTHON/RRtools/results/_expert/-1470648370237774765'
p160
atp161
sS'IMG_0366.jpg'
p162
(S'3001439820502523988'
(lp163
S'/mnt/4E443F99443F82AF/Dropbox/PYTHON/RRtools/results/_expert/3001439820502523988'
p164
atp165
sS'20150730_092757.jpg'
p166
(S'339024956891234905'
(lp167
S'/mnt/4E443F99443F82AF/Dropbox/PYTHON/RRtools/results/_expert/339024956891234905'
p168
atp169
sS'IMG_0179.jpg'
p170
(S'2982357857631262810'
(lp171
S'/mnt/4E443F99443F82AF/Dropbox/PYTHON/RRtools/results/_expert/2982357857631262810'
p172
atp173
sS'IMG_0257.jpg'
p174
(S'-6774517307562200483'
(lp175
S'/mnt/4E443F99443F82AF/Dropbox/PYTHON/RRtools/results/_expert/-6774517307562200483'
p176
atp177
sS'IMG_20150730_122520.jpg'
p178
(S'-54854690500232091'
(lp179
S'/mnt/4E443F99443F82AF/Dropbox/PYTHON/RRtools/results/_expert/-54854690500232091'
p180
atp181
sS'IMG_20150730_115646_4.jpg'
p182
(S'4607850495097834083'
(lp183
S'/mnt/4E443F99443F82AF/Dropbox/PYTHON/RRtools/results/_expert/4607850495097834083'
p184
atp185
sS'IMG_0402.jpg'
p186
(S'-2332517919804305819'
(lp187
S'/mnt/4E443F99443F82AF/Dropbox/PYTHON/RRtools/results/_expert/-2332517919804305819'
p188
atp189
sS'IMG_0413.jpg'
p190
(S'4548932036043168359'
(lp191
S'/mnt/4E443F99443F82AF/Dropbox/PYTHON/RRtools/results/_expert/4548932036043168359'
p192
atp193
sS'IMG_20150730_130759.jpg'
p194
(S'845230744832657084'
(lp195
S'/mnt/4E443F99443F82AF/Dropbox/PYTHON/RRtools/results/_expert/845230744832657084'
p196
atp197
sS'20150730_105915.jpg'
p198
(S'-5052270401957788054'
(lp199
S'/mnt/4E443F99443F82AF/Dropbox/PYTHON/RRtools/results/_expert/-5052270401957788054'
p200
atp201
sS'IMG_20150730_131454.jpg'
p202
(S'-6402145633209648887'
(lp203
S'/mnt/4E443F99443F82AF/Dropbox/PYTHON/RRtools/results/_expert/-6402145633209648887'
p204
atp205
sS'IMG_0308.jpg'
p206
(S'-6814256737628786580'
(lp207
S'/mnt/4E443F99443F82AF/Dropbox/PYTHON/RRtools/results/_expert/-6814256737628786580'
p208
atp209
sS'20150730_092843.jpg'
p210
(S'-6886143397774626707'
(lp211
S'/mnt/4E443F99443F82AF/Dropbox/PYTHON/RRtools/results/_expert/-6886143397774626707'
p212
atp213
sS'20150730_110659.jpg'
p214
(S'2107189369998381679'
(lp215
S'/mnt/4E443F99443F82AF/Dropbox/PYTHON/RRtools/results/_expert/2107189369998381679'
p216
atp217
sS'IMG_0375.jpg'
p218
(S'7234442128957741168'
(lp219
S'/mnt/4E443F99443F82AF/Dropbox/PYTHON/RRtools/results/_expert/7234442128957741168'
p220
atp221
sS'20150730_110656.jpg'
p222
(S'9177912808465794164'
(lp223
S'/mnt/4E443F99443F82AF/Dropbox/PYTHON/RRtools/results/_expert/9177912808465794164'
p224
atp225
sS'20150730_110405.jpg'
p226
(S'-6399928593982395274'
(lp227
S'/mnt/4E443F99443F82AF/Dropbox/PYTHON/RRtools/results/_expert/-6399928593982395274'
p228
atp229
sS'IMG_20150730_121756.jpg'
p230
(S'-7483325592029959047'
(lp231
S'/mnt/4E443F99443F82AF/Dropbox/PYTHON/RRtools/results/_expert/-7483325592029959047'
p232
atp233
sS'20150730_105828.jpg'
p234
(S'8297444342726183035'
(lp235
S'/mnt/4E443F99443F82AF/Dropbox/PYTHON/RRtools/results/_expert/8297444342726183035'
p236
atp237
sS'im_1_2.jpg'
p238
(S'5389092798641662076'
(lp239
S'/mnt/4E443F99443F82AF/Dropbox/PYTHON/RRtools/results/_expert/5389092798641662076'
p240
atp241
sS'IMG_0424.jpg'
p242
(S'1687896155927191165'
(lp243
S'/mnt/4E443F99443F82AF/Dropbox/PYTHON/RRtools/results/_expert/1687896155927191165'
p244
atp245
sS'IMG_20150730_115647_4.jpg'
p246
(S'7475935194573348990'
(lp247
S'/mnt/4E443F99443F82AF/Dropbox/PYTHON/RRtools/results/_expert/7475935194573348990'
p248
atp249
sS'IMG_0370.jpg'
p250
(S'7002371397593464449'
(lp251
S'/mnt/4E443F99443F82AF/Dropbox/PYTHON/RRtools/results/_expert/7002371397593464449'
p252
atp253
sS'IMG_20150730_115254.jpg'
p254
(S'4348645287419056773'
(lp255
S'/mnt/4E443F99443F82AF/Dropbox/PYTHON/RRtools/results/_expert/4348645287419056773'
p256
atp257
sS'20150730_131916.jpg'
p258
(S'-4314335856664475002'
(lp259
S'/mnt/4E443F99443F82AF/Dropbox/PYTHON/RRtools/results/_expert/-4314335856664475002'
p260
atp261
sS'IMG_20150730_115648_2.jpg'
p262
(S'-8622616251730827129'
(lp263
S'/mnt/4E443F99443F82AF/Dropbox/PYTHON/RRtools/results/_expert/-8622616251730827129'
p264
atp265
sS'IMG_0406.jpg'
p266
(S'-2347302739583891319'
(lp267
S'/mnt/4E443F99443F82AF/Dropbox/PYTHON/RRtools/results/_expert/-2347302739583891319'
p268
atp269
sS'IMG_0403.jpg'
p270
(S'7671264285274590232'
(lp271
S'/mnt/4E443F99443F82AF/Dropbox/PYTHON/RRtools/results/_expert/7671264285274590232'
p272
atp273
sS'IMG_0409.jpg'
p274
(S'-4539410850459786094'
(lp275
S'/mnt/4E443F99443F82AF/Dropbox/PYTHON/RRtools/results/_expert/-4539410850459786094'
p276
atp277
sS'20150730_105845.jpg'
p278
(S'-8859739099448096108'
(lp279
S'/mnt/4E443F99443F82AF/Dropbox/PYTHON/RRtools/results/_expert/-8859739099448096108'
p280
atp281
sS'IMG_0248.jpg'
p282
(S'2336852327476533405'
(lp283
S'/mnt/4E443F99443F82AF/Dropbox/PYTHON/RRtools/results/_expert/2336852327476533405'
p284
atp285
sS'20150730_132900.jpg'
p286
(S'-5890726763323730786'
(lp287
S'/mnt/4E443F99443F82AF/Dropbox/PYTHON/RRtools/results/_expert/-5890726763323730786'
p288
atp289
sS'IMG_20150730_121804.jpg'
p290
(S'-5957309881925372765'
(lp291
S'/mnt/4E443F99443F82AF/Dropbox/PYTHON/RRtools/results/_expert/-5957309881925372765'
p292
atp293
sS'IMG_0369.jpg'
p294
(S'315188604778901671'
(lp295
S'/mnt/4E443F99443F82AF/Dropbox/PYTHON/RRtools/results/_expert/315188604778901671'
p296
atp297
sS'IMG_20150730_115646_3.jpg'
p298
(S'839905226666111144'
(lp299
S'/mnt/4E443F99443F82AF/Dropbox/PYTHON/RRtools/results/_expert/839905226666111144'
p300
atp301
sS'IMG_20150730_122200.jpg'
p302
(S'-1144649552723483108'
(lp303
S'/mnt/4E443F99443F82AF/Dropbox/PYTHON/RRtools/results/_expert/-1144649552723483108'
p304
atp305
sS'IMG_20150730_121804_2.jpg'
p306
(S'-2564877291449755478'
(lp307
S'/mnt/4E443F99443F82AF/Dropbox/PYTHON/RRtools/results/_expert/-2564877291449755478'
p308
atp309
sS'IMG_0425.jpg'
p310
(S'-6755065712671464272'
(lp311
S'/mnt/4E443F99443F82AF/Dropbox/PYTHON/RRtools/results/_expert/-6755065712671464272'
p312
atp313
sS'20150730_105901.jpg'
p314
(S'7827044501736669361'
(lp315
S'/mnt/4E443F99443F82AF/Dropbox/PYTHON/RRtools/results/_expert/7827044501736669361'
p316
atp317
sS'IMG_20150730_121801.jpg'
p318
(S'3596923679180554418'
(lp319
S'/mnt/4E443F99443F82AF/Dropbox/PYTHON/RRtools/results/_expert/3596923679180554418'
p320
atp321
sS'IMG_0405.jpg'
p322
(S'-8351036944642787810'
(lp323
S'/mnt/4E443F99443F82AF/Dropbox/PYTHON/RRtools/results/_expert/-8351036944642787810'
p324
atp325
sS'IMG_20150730_115646_5.jpg'
p326
(S'-5395915710013062474'
(lp327
S'/mnt/4E443F99443F82AF/Dropbox/PYTHON/RRtools/results/_expert/-5395915710013062474'
p328
atp329
sS'IMG_20150730_105632.jpg'
p330
(S'-4438044741159217992'
(lp331
S'/mnt/4E443F99443F82AF/Dropbox/PYTHON/RRtools/results/_expert/-4438044741159217992'
p332
atp333
sS'IMG_0309.jpg'
p334
(S'1628689130713867961'
(lp335
S'/mnt/4E443F99443F82AF/Dropbox/PYTHON/RRtools/results/_expert/1628689130713867961'
p336
atp337
sS'20150730_110650.jpg'
p338
(S'6753485964961621178'
(lp339
S'/mnt/4E443F99443F82AF/Dropbox/PYTHON/RRtools/results/_expert/6753485964961621178'
p340
atp341
sS'IMG_0379.jpg'
p342
(S'3423008035798740668'
(lp343
S'/mnt/4E443F99443F82AF/Dropbox/PYTHON/RRtools/results/_expert/3423008035798740668'
p344
atp345
sS'IMG_20150730_122225.jpg'
p346
(S'-4239073373486152821'
(lp347
S'/mnt/4E443F99443F82AF/Dropbox/PYTHON/RRtools/results/_expert/-4239073373486152821'
p348
atp349
sS'IMG_20150730_134219.jpg'
p350
(S'-6123677903345542975'
(lp351
S'/mnt/4E443F99443F82AF/Dropbox/PYTHON/RRtools/results/_expert/-6123677903345542975'
p352
atp353
sS'IMG_20150730_115301.jpg'
p354
(S'-503627787116877194'
(lp355
S'/mnt/4E443F99443F82AF/Dropbox/PYTHON/RRtools/results/_expert/-503627787116877194'
p356
atp357
sS'IMG_20150730_130706.jpg'
p358
(S'-716857427831937336'
(lp359
S'/mnt/4E443F99443F82AF/Dropbox/PYTHON/RRtools/results/_expert/-716857427831937336'
p360
atp361
sS'IMG_0260.jpg'
p362
(S'1866921607760067275'
(lp363
S'/mnt/4E443F99443F82AF/Dropbox/PYTHON/RRtools/results/_expert/1866921607760067275'
p364
atp365
sS'20150730_132904.jpg'
p366
(S'2784305836639201058'
(lp367
S'/mnt/4E443F99443F82AF/Dropbox/PYTHON/RRtools/results/_expert/2784305836639201058'
p368
atp369
sS'IMG_20150730_115645_2.jpg'
p370
(S'-3181783550548299058'
(lp371
S'/mnt/4E443F99443F82AF/Dropbox/PYTHON/RRtools/results/_expert/-3181783550548299058'
p372
atp373
sS'IMG_0430.jpg'
p374
(S'5019456389283112146'
(lp375
S'/mnt/4E443F99443F82AF/Dropbox/PYTHON/RRtools/results/_expert/5019456389283112146'
p376
atp377
sS'IMG_0421.jpg'
p378
(S'-1876442384551945004'
(lp379
S'/mnt/4E443F99443F82AF/Dropbox/PYTHON/RRtools/results/_expert/-1876442384551945004'
p380
atp381
sS'IMG_20150730_125402.jpg'
p382
(S'-8003537568821096667'
(lp383
S'/mnt/4E443F99443F82AF/Dropbox/PYTHON/RRtools/results/_expert/-8003537568821096667'
p384
atp385
sS'IMG_0269.jpg'
p386
(S'5881048793812175062'
(lp387
S'/mnt/4E443F99443F82AF/Dropbox/PYTHON/RRtools/results/_expert/5881048793812175062'
p388
atp389
sS'IMG_0410.jpg'
p390
(S'-1440105349508142888'
(lp391
S'/mnt/4E443F99443F82AF/Dropbox/PYTHON/RRtools/results/_expert/-1440105349508142888'
p392
atp393
sS'20150730_131915.jpg'
p394
(S'8128610011730180017'
(lp395
S'/mnt/4E443F99443F82AF/Dropbox/PYTHON/RRtools/results/_expert/8128610011730180017'
p396
atp397
sS'20150730_132857.jpg'
p398
(S'7959978838073436379'
(lp399
S'/mnt/4E443F99443F82AF/Dropbox/PYTHON/RRtools/results/_expert/7959978838073436379'
p400
atp401
sS'20150730_092846.jpg'
p402
(S'-7118406130418905380'
(lp403
S'/mnt/4E443F99443F82AF/Dropbox/PYTHON/RRtools/results/_expert/-7118406130418905380'
p404
atp405
sS'IMG_20150730_122502.jpg'
p406
(S'6218160180730828509'
(lp407
S'/mnt/4E443F99443F82AF/Dropbox/PYTHON/RRtools/results/_expert/6218160180730828509'
p408
atp409
sS'20150730_110706.jpg'
p410
(S'-2358624792886162210'
(lp411
S'/mnt/4E443F99443F82AF/Dropbox/PYTHON/RRtools/results/_expert/-2358624792886162210'
p412
atp413
sS'20150730_092751.jpg'
p414
(S'-3211474399155795745'
(lp415
S'/mnt/4E443F99443F82AF/Dropbox/PYTHON/RRtools/results/_expert/-3211474399155795745'
p416
atp417
sS'20150730_110645.jpg'
p418
(S'3877929266618061024'
(lp419
S'/mnt/4E443F99443F82AF/Dropbox/PYTHON/RRtools/results/_expert/3877929266618061024'
p420
atp421
sS'IMG_0249.jpg'
p422
(S'-6106109541122121776'
(lp423
S'/mnt/4E443F99443F82AF/Dropbox/PYTHON/RRtools/results/_expert/-6106109541122121776'
p424
atp425
sS'IMG_0365.jpg'
p426
(S'329957424558487267'
(lp427
S'/mnt/4E443F99443F82AF/Dropbox/PYTHON/RRtools/results/_expert/329957424558487267'
p428
atp429
sS'IMG_20150730_121804_1.jpg'
p430
(S'4999757250857383653'
(lp431
S'/mnt/4E443F99443F82AF/Dropbox/PYTHON/RRtools/results/_expert/4999757250857383653'
p432
atp433
sS'20150730_105842.jpg'
p434
(S'-2406440250128229657'
(lp435
S'/mnt/4E443F99443F82AF/Dropbox/PYTHON/RRtools/results/_expert/-2406440250128229657'
p436
atp437
sS'IMG_20150730_115649_5.jpg'
p438
(S'3808503725113933033'
(lp439
S'/mnt/4E443F99443F82AF/Dropbox/PYTHON/RRtools/results/_expert/3808503725113933033'
p440
atp441
sS'IMG_20150730_115648_3.jpg'
p442
(S'-179654383100171542'
(lp443
S'/mnt/4E443F99443F82AF/Dropbox/PYTHON/RRtools/results/_expert/-179654383100171542'
p444
atp445
sS'20150730_105818.jpg'
p446
(S'2750413248422585810'
(lp447
S'/mnt/4E443F99443F82AF/Dropbox/PYTHON/RRtools/results/_expert/2750413248422585810'
p448
atp449
sS'IMG_20150730_125408.jpg'
p450
(S'-2879004324873195281'
(lp451
S'/mnt/4E443F99443F82AF/Dropbox/PYTHON/RRtools/results/_expert/-2879004324873195281'
p452
atp453
sS'IMG_0418.jpg'
p454
(S'2356559923903272176'
(lp455
S'/mnt/4E443F99443F82AF/Dropbox/PYTHON/RRtools/results/_expert/2356559923903272176'
p456
atp457
sS'IMG_20150730_115650_3.jpg'
p458
(S'4946658159615296757'
(lp459
S'/mnt/4E443F99443F82AF/Dropbox/PYTHON/RRtools/results/_expert/4946658159615296757'
p460
atp461
sS'IMG_0373.jpg'
p462
(S'998605192278567670'
(lp463
S'/mnt/4E443F99443F82AF/Dropbox/PYTHON/RRtools/results/_expert/998605192278567670'
p464
atp465
sS'IMG_0262.jpg'
p466
(S'-572290055779691735'
(lp467
S'/mnt/4E443F99443F82AF/Dropbox/PYTHON/RRtools/results/_expert/-572290055779691735'
p468
atp469
sS'IMG_0182.jpg'
p470
(S'3395900402276696316'
(lp471
S'/mnt/4E443F99443F82AF/Dropbox/PYTHON/RRtools/results/_expert/3395900402276696316'
p472
atp473
sS'IMG_20150730_115649_4.jpg'
p474
(S'-6195294479996963300'
(lp475
S'/mnt/4E443F99443F82AF/Dropbox/PYTHON/RRtools/results/_expert/-6195294479996963300'
p476
atp477
sS'IMG_0361.jpg'
p478
(S'9005182025577420543'
(lp479
S'/mnt/4E443F99443F82AF/Dropbox/PYTHON/RRtools/results/_expert/9005182025577420543'
p480
atp481
sS'IMG_20150730_134225.jpg'
p482
(S'4270323839705596288'
(lp483
S'/mnt/4E443F99443F82AF/Dropbox/PYTHON/RRtools/results/_expert/4270323839705596288'
p484
atp485
sS'IMG_20150730_115650_4.jpg'
p486
(S'-2632729202215427322'
(lp487
S'/mnt/4E443F99443F82AF/Dropbox/PYTHON/RRtools/results/_expert/-2632729202215427322'
p488
atp489
sS'IMG_20150730_115645.jpg'
p490
(S'-1079893365724117241'
(lp491
S'/mnt/4E443F99443F82AF/Dropbox/PYTHON/RRtools/results/_expert/-1079893365724117241'
p492
atp493
sS'IMG_0428.jpg'
p494
(S'-2123553937231809271'
(lp495
S'/mnt/4E443F99443F82AF/Dropbox/PYTHON/RRtools/results/_expert/-2123553937231809271'
p496
atp497
sS'20150730_131823.jpg'
p498
(S'2388100037569949451'
(lp499
S'/mnt/4E443F99443F82AF/Dropbox/PYTHON/RRtools/results/_expert/2388100037569949451'
p500
atp501
sS'20150730_110545.jpg'
p502
(S'-7279614676622438641'
(lp503
S'/mnt/4E443F99443F82AF/Dropbox/PYTHON/RRtools/results/_expert/-7279614676622438641'
p504
atp505
sS'IMG_0173.jpg'
p506
(S'8107147102859165456'
(lp507
S'/mnt/4E443F99443F82AF/Dropbox/PYTHON/RRtools/results/_expert/8107147102859165456'
p508
atp509
sS'IMG_20150730_115651.jpg'
p510
(S'-5299000489475228456'
(lp511
S'/mnt/4E443F99443F82AF/Dropbox/PYTHON/RRtools/results/_expert/-5299000489475228456'
p512
atp513
sS'IMG_0427.jpg'
p514
(S'-4315662048107704046'
(lp515
S'/mnt/4E443F99443F82AF/Dropbox/PYTHON/RRtools/results/_expert/-4315662048107704046'
p516
atp517
sS'IMG_0250.jpg'
p518
(S'-3006828040410479338'
(lp519
S'/mnt/4E443F99443F82AF/Dropbox/PYTHON/RRtools/results/_expert/-3006828040410479338'
p520
atp521
sS'IMG_20150730_122140.jpg'
p522
(S'-8783858460463883497'
(lp523
S'/mnt/4E443F99443F82AF/Dropbox/PYTHON/RRtools/results/_expert/-8783858460463883497'
p524
atp525
sS'IMG_0243.jpg'
p526
(S'7216101288895529242'
(lp527
S'/mnt/4E443F99443F82AF/Dropbox/PYTHON/RRtools/results/_expert/7216101288895529242'
p528
atp529
sS'IMG_0380.jpg'
p530
(S'4777374746884818204'
(lp531
S'/mnt/4E443F99443F82AF/Dropbox/PYTHON/RRtools/results/_expert/4777374746884818204'
p532
atp533
sS'IMG_0176.jpg'
p534
(S'7874820369958886689'
(lp535
S'/mnt/4E443F99443F82AF/Dropbox/PYTHON/RRtools/results/_expert/7874820369958886689'
p536
atp537
sS'20150730_110711.jpg'
p538
(S'-2794961827705963742'
(lp539
S'/mnt/4E443F99443F82AF/Dropbox/PYTHON/RRtools/results/_expert/-2794961827705963742'
p540
atp541
sS'20150730_105830.jpg'
p542
(S'2280482528706119460'
(lp543
S'/mnt/4E443F99443F82AF/Dropbox/PYTHON/RRtools/results/_expert/2280482528706119460'
p544
atp545
sS'IMG_20150730_122216.jpg'
p546
(S'4626130343932196133'
(lp547
S'/mnt/4E443F99443F82AF/Dropbox/PYTHON/RRtools/results/_expert/4626130343932196133'
p548
atp549
sS'20150730_110705.jpg'
p550
(S'-8362390997945058519'
(lp551
S'/mnt/4E443F99443F82AF/Dropbox/PYTHON/RRtools/results/_expert/-8362390997945058519'
p552
atp553
sS'IMG_0404.jpg'
p554
(S'91908923699866923'
(lp555
S'/mnt/4E443F99443F82AF/Dropbox/PYTHON/RRtools/results/_expert/91908923699866923'
p556
atp557
sS'IMG_20150730_115649_2.jpg'
p558
(S'-8634434143040721358'
(lp559
S'/mnt/4E443F99443F82AF/Dropbox/PYTHON/RRtools/results/_expert/-8634434143040721358'
p560
atp561
sS'IMG_20150730_134254.jpg'
p562
(S'1871786360292947356'
(lp563
S'/mnt/4E443F99443F82AF/Dropbox/PYTHON/RRtools/results/_expert/1871786360292947356'
p564
atp565
sS'IMG_20150730_115647_1.jpg'
p566
(S'-5845378000096821969'
(lp567
S'/mnt/4E443F99443F82AF/Dropbox/PYTHON/RRtools/results/_expert/-5845378000096821969'
p568
atp569
sS'IMG_20150730_130809.jpg'
p570
(S'-7627371852762032336'
(lp571
S'/mnt/4E443F99443F82AF/Dropbox/PYTHON/RRtools/results/_expert/-7627371852762032336'
p572
atp573
sS'IMG_20150730_105748.jpg'
p574
(S'-6471166131511394030'
(lp575
S'/mnt/4E443F99443F82AF/Dropbox/PYTHON/RRtools/results/_expert/-6471166131511394030'
p576
atp577
sS'IMG_20150730_125339.jpg'
p578
(S'-3107093660536779468'
(lp579
S'/mnt/4E443F99443F82AF/Dropbox/PYTHON/RRtools/results/_expert/-3107093660536779468'
p580
atp581
sS'20150730_131816.jpg'
p582
(S'571836277146188087'
(lp583
S'/mnt/4E443F99443F82AF/Dropbox/PYTHON/RRtools/results/_expert/571836277146188087'
p584
atp585
sS'IMG_0267.jpg'
p586
(S'8320220456823932728'
(lp587
S'/mnt/4E443F99443F82AF/Dropbox/PYTHON/RRtools/results/_expert/8320220456823932728'
p588
atp589
sS'20150730_092756.jpg'
p590
(S'8781938824977889132'
(lp591
S'/mnt/4E443F99443F82AF/Dropbox/PYTHON/RRtools/results/_expert/8781938824977889132'
p592
atp593
sS'20150730_110717.jpg'
p594
(S'-9030782764385137348'
(lp595
S'/mnt/4E443F99443F82AF/Dropbox/PYTHON/RRtools/results/_expert/-9030782764385137348'
p596
atp597
sS'IMG_0374.jpg'
p598
(S'-2769340076153155267'
(lp599
S'/mnt/4E443F99443F82AF/Dropbox/PYTHON/RRtools/results/_expert/-2769340076153155267'
p600
atp601
sS'IMG_0247.jpg'
p602
(S'-6352275458486506178'
(lp603
S'/mnt/4E443F99443F82AF/Dropbox/PYTHON/RRtools/results/_expert/-6352275458486506178'
p604
atp605
sS'IMG_0431.jpg'
p606
(S'-4984325816051784897'
(lp607
S'/mnt/4E443F99443F82AF/Dropbox/PYTHON/RRtools/results/_expert/-4984325816051784897'
p608
atp609
sS'20150730_110657.jpg'
p610
(S'734966940123139393'
(lp611
S'/mnt/4E443F99443F82AF/Dropbox/PYTHON/RRtools/results/_expert/734966940123139393'
p612
atp613
sS'20150730_110714.jpg'
p614
(S'-6359556369977102965'
(lp615
S'/mnt/4E443F99443F82AF/Dropbox/PYTHON/RRtools/results/_expert/-6359556369977102965'
p616
atp617
sS'20150730_110539.jpg'
p618
(S'-8604756031875180218'
(lp619
S'/mnt/4E443F99443F82AF/Dropbox/PYTHON/RRtools/results/_expert/-8604756031875180218'
p620
atp621
sS'IMG_0387.jpg'
p622
(S'-7665563121269835961'
(lp623
S'/mnt/4E443F99443F82AF/Dropbox/PYTHON/RRtools/results/_expert/-7665563121269835961'
p624
atp625
sS'IMG_20150730_134231.jpg'
p626
(S'2499599943117916983'
(lp627
S'/mnt/4E443F99443F82AF/Dropbox/PYTHON/RRtools/results/_expert/2499599943117916983'
p628
atp629
sS'IMG_20150730_125216.jpg'
p630
(S'1771966788343785804'
(lp631
S'/mnt/4E443F99443F82AF/Dropbox/PYTHON/RRtools/results/_expert/1771966788343785804'
p632
atp633
sS'20150730_132929.jpg'
p634
(S'-3443257171283778227'
(lp635
S'/mnt/4E443F99443F82AF/Dropbox/PYTHON/RRtools/results/_expert/-3443257171283778227'
p636
atp637
sS'IMG_20150730_115650.jpg'
p638
(S'4704765715635667853'
(lp639
S'/mnt/4E443F99443F82AF/Dropbox/PYTHON/RRtools/results/_expert/4704765715635667853'
p640
atp641
sS'IMG_0259.jpg'
p642
(S'-7020699224926584821'
(lp643
S'/mnt/4E443F99443F82AF/Dropbox/PYTHON/RRtools/results/_expert/-7020699224926584821'
p644
atp645
sS'IMG_0359.jpg'
p646
(S'-8996903084076134574'
(lp647
S'/mnt/4E443F99443F82AF/Dropbox/PYTHON/RRtools/results/_expert/-8996903084076134574'
p648
atp649
sS'IMG_20150730_125354.jpg'
p650
(S'-7096544690995777821'
(lp651
S'/mnt/4E443F99443F82AF/Dropbox/PYTHON/RRtools/results/_expert/-7096544690995777821'
p652
atp653
sS'IMG_20150730_130659.jpg'
p654
(S'-8722693138065739947'
(lp655
S'/mnt/4E443F99443F82AF/Dropbox/PYTHON/RRtools/results/_expert/-8722693138065739947'
p656
atp657
sS'IMG_20150730_105655.jpg'
p658
(S'-5331677147159733415'
(lp659
S'/mnt/4E443F99443F82AF/Dropbox/PYTHON/RRtools/results/_expert/-5331677147159733415'
p660
atp661
sS'IMG_20150730_130803.jpg'
p662
(S'3516578050859829594'
(lp663
S'/mnt/4E443F99443F82AF/Dropbox/PYTHON/RRtools/results/_expert/3516578050859829594'
p664
atp665
sS'IMG_20150730_122504.jpg'
p666
(S'2667660824683797851'
(lp667
S'/mnt/4E443F99443F82AF/Dropbox/PYTHON/RRtools/results/_expert/2667660824683797851'
p668
atp669
sS'IMG_20150730_115642.jpg'
p670
(S'4923912839830780252'
(lp671
S'/mnt/4E443F99443F82AF/Dropbox/PYTHON/RRtools/results/_expert/4923912839830780252'
p672
atp673
sS'20150730_132917.jpg'
p674
(S'3444391673811084638'
(lp675
S'/mnt/4E443F99443F82AF/Dropbox/PYTHON/RRtools/results/_expert/3444391673811084638'
p676
atp677
sS'IMG_20150730_130723.jpg'
p678
(S'-6929595615735330977'
(lp679
S'/mnt/4E443F99443F82AF/Dropbox/PYTHON/RRtools/results/_expert/-6929595615735330977'
p680
atp681
sS'IMG_0389.jpg'
p682
(S'7230681596168684385'
(lp683
S'/mnt/4E443F99443F82AF/Dropbox/PYTHON/RRtools/results/_expert/7230681596168684385'
p684
atp685
sS'20150730_132932.jpg'
p686
(S'-2797876153379479195'
(lp687
S'/mnt/4E443F99443F82AF/Dropbox/PYTHON/RRtools/results/_expert/-2797876153379479195'
p688
atp689
sS'IMG_20150730_115251.jpg'
p690
(S'7913239829434195260'
(lp691
S'/mnt/4E443F99443F82AF/Dropbox/PYTHON/RRtools/results/_expert/7913239829434195260'
p692
atp693
sS'IMG_20150730_122154.jpg'
p694
(S'6331509381153749356'
(lp695
S'/mnt/4E443F99443F82AF/Dropbox/PYTHON/RRtools/results/_expert/6331509381153749356'
p696
atp697
sS'IMG_0360.jpg'
p698
(S'562220156946764946'
p699
(lp700
S'/mnt/4E443F99443F82AF/Dropbox/PYTHON/RRtools/results/_expert/562220156946764946'
p701
atp702
sS'IMG_20150730_115649_3.jpg'
p703
(S'1369348062070175087'
(lp704
S'/mnt/4E443F99443F82AF/Dropbox/PYTHON/RRtools/results/_expert/1369348062070175087'
p705
atp706
sS'IMG_0432.jpg'
p707
(S'2580308726255354224'
(lp708
S'/mnt/4E443F99443F82AF/Dropbox/PYTHON/RRtools/results/_expert/2580308726255354224'
p709
atp710
sS'20150730_105912.jpg'
p711
(S'-1284581134838066831'
(lp712
S'/mnt/4E443F99443F82AF/Dropbox/PYTHON/RRtools/results/_expert/-1284581134838066831'
p713
atp714
sS'20150730_132852.jpg'
p715
(S'-6922170693620976782'
(lp716
S'/mnt/4E443F99443F82AF/Dropbox/PYTHON/RRtools/results/_expert/-6922170693620976782'
p717
atp718
sS'IMG_0388.jpg'
p719
(S'-6105624419593073804'
(lp720
S'/mnt/4E443F99443F82AF/Dropbox/PYTHON/RRtools/results/_expert/-6105624419593073804'
p721
atp722
sS'20150730_092934.jpg'
p723
(S'5850750303258129782'
(lp724
S'/mnt/4E443F99443F82AF/Dropbox/PYTHON/RRtools/results/_expert/5850750303258129782'
p725
atp726
sS'IMG_0271.jpg'
p727
(S'8763084383147126761'
(lp728
S'/mnt/4E443F99443F82AF/Dropbox/PYTHON/RRtools/results/_expert/8763084383147126761'
p729
atp730
sS'IMG_0184.jpg'
p731
(S'956744739232938362'
(lp732
S'/mnt/4E443F99443F82AF/Dropbox/PYTHON/RRtools/results/_expert/956744739232938362'
p733
atp734
sS'IMG_0407.jpg'
p735
(S'7656495465527005052'
(lp736
S'/mnt/4E443F99443F82AF/Dropbox/PYTHON/RRtools/results/_expert/7656495465527005052'
p737
atp738
sS'IMG_0426.jpg'
p739
(S'4127299820522951551'
(lp740
S'/mnt/4E443F99443F82AF/Dropbox/PYTHON/RRtools/results/_expert/4127299820522951551'
p741
atp742
sS'IMG_20150730_115645_4.jpg'
p743
(S'3054069386162874240'
(lp744
S'/mnt/4E443F99443F82AF/Dropbox/PYTHON/RRtools/results/_expert/3054069386162874240'
p745
atp746
sS'20150730_132936.jpg'
p747
(S'2080491173204037505'
(lp748
S'/mnt/4E443F99443F82AF/Dropbox/PYTHON/RRtools/results/_expert/2080491173204037505'
p749
atp750
sS'IMG_0306.jpg'
p751
(S'-563418979906026110'
(lp752
S'/mnt/4E443F99443F82AF/Dropbox/PYTHON/RRtools/results/_expert/-563418979906026110'
p753
atp754
sS'IMG_0367.jpg'
p755
(S'-2109254238981271743'
(lp756
S'/mnt/4E443F99443F82AF/Dropbox/PYTHON/RRtools/results/_expert/-2109254238981271743'
p757
atp758
sS'IMG_20150730_115644_2.jpg'
p759
(S'2610411530191532339'
(lp760
S'/mnt/4E443F99443F82AF/Dropbox/PYTHON/RRtools/results/_expert/2610411530191532339'
p761
atp762
sS'IMG_0273.jpg'
p763
(S'-7244448027278666869'
(lp764
S'/mnt/4E443F99443F82AF/Dropbox/PYTHON/RRtools/results/_expert/-7244448027278666869'
p765
atp766
sS'20150730_131836.jpg'
p767
(S'-9162489260768542707'
(lp768
S'/mnt/4E443F99443F82AF/Dropbox/PYTHON/RRtools/results/_expert/-9162489260768542707'
p769
atp770
sS'IMG_20150730_115649_1.jpg'
p771
(S'3823272544861518221'
(lp772
S'/mnt/4E443F99443F82AF/Dropbox/PYTHON/RRtools/results/_expert/3823272544861518221'
p773
atp774
sS'IMG_20150730_105800.jpg'
p775
(S'-2907350254916058131'
(lp776
S'/mnt/4E443F99443F82AF/Dropbox/PYTHON/RRtools/results/_expert/-2907350254916058131'
p777
atp778
sS'IMG_0256.jpg'
p779
(S'3229264897804696464'
(lp780
S'/mnt/4E443F99443F82AF/Dropbox/PYTHON/RRtools/results/_expert/3229264897804696464'
p781
atp782
sS'IMG_20150730_130713.jpg'
p783
(S'2836872803172251026'
(lp784
S'/mnt/4E443F99443F82AF/Dropbox/PYTHON/RRtools/results/_expert/2836872803172251026'
p785
atp786
sS'IMG_0270.jpg'
p787
(S'320138514804472028'
(lp788
S'/mnt/4E443F99443F82AF/Dropbox/PYTHON/RRtools/results/_expert/320138514804472028'
p789
atp790
sS'IMG_0411.jpg'
p791
(S'7002856518866511653'
(lp792
S'/mnt/4E443F99443F82AF/Dropbox/PYTHON/RRtools/results/_expert/7002856518866511653'
p793
atp794
sS'IMG_20150730_115650_1.jpg'
p795
(S'7385869823155055511'
(lp796
S'/mnt/4E443F99443F82AF/Dropbox/PYTHON/RRtools/results/_expert/7385869823155055511'
p797
atp798
sS'IMG_20150730_125344.jpg'
p799
(S'9129918842105125212'
(lp800
S'/mnt/4E443F99443F82AF/Dropbox/PYTHON/RRtools/results/_expert/9129918842105125212'
p801
atp802
sS'IMG_0386.jpg'
p803
(S'2338219083841060250'
(lp804
S'/mnt/4E443F99443F82AF/Dropbox/PYTHON/RRtools/results/_expert/2338219083841060250'
p805
atp806
sS'IMG_0307.jpg'
p807
(S'7879542888468628719'
(lp808
S'/mnt/4E443F99443F82AF/Dropbox/PYTHON/RRtools/results/_expert/7879542888468628719'
p809
atp810
sS'20150730_092749.jpg'
p811
(S'5630686569982774172'
(lp812
S'/mnt/4E443F99443F82AF/Dropbox/PYTHON/RRtools/results/_expert/5630686569982774172'
p813
atp814
sS'20150730_105821.jpg'
p815
(S'9176709304349179014'
(lp816
S'/mnt/4E443F99443F82AF/Dropbox/PYTHON/RRtools/results/_expert/9176709304349179014'
p817
atp818
sS'IMG_0253.jpg'
p819
(S'2996938164904417697'
(lp820
S'/mnt/4E443F99443F82AF/Dropbox/PYTHON/RRtools/results/_expert/2996938164904417697'
p821
atp822
sS'IMG_20150730_115645_3.jpg'
p823
(S'6822014654818597787'
(lp824
S'/mnt/4E443F99443F82AF/Dropbox/PYTHON/RRtools/results/_expert/6822014654818597787'
p825
atp826
sS'IMG_20150730_115644_3.jpg'
p827
(S'-7393418675175364282'
(lp828
S'/mnt/4E443F99443F82AF/Dropbox/PYTHON/RRtools/results/_expert/-7393418675175364282'
p829
atp830
sS'IMG_0244.jpg'
p831
(S'-348541253427609687'
(lp832
S'/mnt/4E443F99443F82AF/Dropbox/PYTHON/RRtools/results/_expert/-348541253427609687'
p833
atp834
sS'IMG_20150730_115646_1.jpg'
p835
(S'3279052889469868458'
(lp836
S'/mnt/4E443F99443F82AF/Dropbox/PYTHON/RRtools/results/_expert/3279052889469868458'
p837
atp838
sS'IMG_20150730_122229.jpg'
p839
(S'-6924450954134295225'
(lp840
S'/mnt/4E443F99443F82AF/Dropbox/PYTHON/RRtools/results/_expert/-6924450954134295225'
p841
atp842
sS'20150730_131834.jpg'
p843
(S'6844851148377248687'
(lp844
S'/mnt/4E443F99443F82AF/Dropbox/PYTHON/RRtools/results/_expert/6844851148377248687'
p845
atp846
sS'20150730_105822.jpg'
p847
(S'3172911099034282417'
(lp848
S'/mnt/4E443F99443F82AF/Dropbox/PYTHON/RRtools/results/_expert/3172911099034282417'
p849
atp850
sS'_restored_IMG_0173.jpg'
p851
(S'609255982872486322'
(lp852
S'/mnt/4E443F99443F82AF/Dropbox/PYTHON/RRtools/results/_expert/609255982872486322'
p853
atp854
sS'IMG_0252.jpg'
p855
(S'8107632224132212660'
(lp856
S'/mnt/4E443F99443F82AF/Dropbox/PYTHON/RRtools/results/_expert/8107632224132212660'
p857
atp858
sS'IMG_0180.jpg'
p859
(S'5835112065816455070'
(lp860
S'/mnt/4E443F99443F82AF/Dropbox/PYTHON/RRtools/results/_expert/5835112065816455070'
p861
atp862
sS'IMG_0364.jpg'
p863
(S'-8113020444040168010'
(lp864
S'/mnt/4E443F99443F82AF/Dropbox/PYTHON/RRtools/results/_expert/-8113020444040168010'
p865
atp866
sS'20150730_105921.jpg'
p867
(S'-4160113833197627465'
(lp868
S'/mnt/4E443F99443F82AF/Dropbox/PYTHON/RRtools/results/_expert/-4160113833197627465'
p869
atp870
sS'IMG_20150730_115650_2.jpg'
p871
(S'-5057124045495599688'
(lp872
S'/mnt/4E443F99443F82AF/Dropbox/PYTHON/RRtools/results/_expert/-5057124045495599688'
p873
atp874
sS'IMG_0412.jpg'
p875
(S'-3894029832299486278'
(lp876
S'/mnt/4E443F99443F82AF/Dropbox/PYTHON/RRtools/results/_expert/-3894029832299486278'
p877
atp878
sS'IMG_0419.jpg'
p879
(S'-7647222281207624259'
(lp880
S'/mnt/4E443F99443F82AF/Dropbox/PYTHON/RRtools/results/_expert/-7647222281207624259'
p881
atp882
sS'IMG_0382.jpg'
p883
(S'7216586410168576446'
(lp884
S'/mnt/4E443F99443F82AF/Dropbox/PYTHON/RRtools/results/_expert/7216586410168576446'
p885
atp886
sS'IMG_0358.jpg'
p887
(S'-553941215701480001'
(lp888
S'/mnt/4E443F99443F82AF/Dropbox/PYTHON/RRtools/results/_expert/-553941215701480001'
p889
atp890
sS'IMG_20150730_125212.jpg'
p891
(S'6650318114671302080'
(lp892
S'/mnt/4E443F99443F82AF/Dropbox/PYTHON/RRtools/results/_expert/6650318114671302080'
p893
atp894
sS'IMG_0420.jpg'
p895
(S'-6987136444035740735'
(lp896
S'/mnt/4E443F99443F82AF/Dropbox/PYTHON/RRtools/results/_expert/-6987136444035740735'
p897
atp898
sS'IMG_20150730_115647_5.jpg'
p899
(S'-967010673769305781'
(lp900
S'/mnt/4E443F99443F82AF/Dropbox/PYTHON/RRtools/results/_expert/-967010673769305781'
p901
atp902
sS'20150730_110548.jpg'
p903
(S'-1522046388927926282'
(lp904
S'/mnt/4E443F99443F82AF/Dropbox/PYTHON/RRtools/results/_expert/-1522046388927926282'
p905
atp906
sS'IMG_0383.jpg'
p907
(S'-2787211794942319669'
(lp908
S'/mnt/4E443F99443F82AF/Dropbox/PYTHON/RRtools/results/_expert/-2787211794942319669'
p909
atp910
sS'IMG_20150730_130654.jpg'
p911
(S'3531702823467915124'
(lp912
S'/mnt/4E443F99443F82AF/Dropbox/PYTHON/RRtools/results/_expert/3531702823467915124'
p913
atp914
sS'IMG_20150730_125349.jpg'
p915
(S'-424346719224802355'
(lp916
S'/mnt/4E443F99443F82AF/Dropbox/PYTHON/RRtools/results/_expert/-424346719224802355'
p917
atp918
sS'20150730_110552.jpg'
p919
(S'2055503760512376783'
(lp920
S'/mnt/4E443F99443F82AF/Dropbox/PYTHON/RRtools/results/_expert/2055503760512376783'
p921
atp922
sS'20150730_092752.jpg'
p923
(S'7670699132502617040'
(lp924
S'/mnt/4E443F99443F82AF/Dropbox/PYTHON/RRtools/results/_expert/7670699132502617040'
p925
atp926
sS'20150730_105907.jpg'
p927
(S'-4383862635549709513'
(lp928
S'/mnt/4E443F99443F82AF/Dropbox/PYTHON/RRtools/results/_expert/-4383862635549709513'
p929
atp930
sS'IMG_0377.jpg'
p931
(S'-8773154281724052526'
(lp932
S'/mnt/4E443F99443F82AF/Dropbox/PYTHON/RRtools/results/_expert/-8773154281724052526'
p933
atp934
sS'20150730_105925.jpg'
p935
(S'5611645641060993491'
(lp936
S'/mnt/4E443F99443F82AF/Dropbox/PYTHON/RRtools/results/_expert/5611645641060993491'
p937
atp938
sS'20150730_105835.jpg'
p939
(S'7405913407489499605'
(lp940
S'/mnt/4E443F99443F82AF/Dropbox/PYTHON/RRtools/results/_expert/7405913407489499605'
p941
atp942
sS'IMG_20150730_125411.jpg'
p943
(S'1108088067753639781'
(lp944
S'/mnt/4E443F99443F82AF/Dropbox/PYTHON/RRtools/results/_expert/1108088067753639781'
p945
atp946
sS'IMG_0311.jpg'
p947
(S'8533181835129121830'
(lp948
S'/mnt/4E443F99443F82AF/Dropbox/PYTHON/RRtools/results/_expert/8533181835129121830'
p949
atp950
sS'IMG_0401.jpg'
p951
(S'5217339802483247098'
(lp952
S'/mnt/4E443F99443F82AF/Dropbox/PYTHON/RRtools/results/_expert/5217339802483247098'
p953
atp954
sS'IMG_20150730_115646.jpg'
p955
(S'-8644479907551255088'
(lp956
S'/mnt/4E443F99443F82AF/Dropbox/PYTHON/RRtools/results/_expert/-8644479907551255088'
p957
atp958
sS'IMG_20150730_115647.jpg'
p959
(S'1359318297559640997'
(lp960
S'/mnt/4E443F99443F82AF/Dropbox/PYTHON/RRtools/results/_expert/1359318297559640997'
p961
atp962
sS'IMG_20150730_115644_1.jpg'
p963
(S'8614177735506429412'
(lp964
S'/mnt/4E443F99443F82AF/Dropbox/PYTHON/RRtools/results/_expert/8614177735506429412'
p965
atp966
sS'IMG_20150730_115646_2.jpg'
p967
(S'-7603056641932544027'
(lp968
S'/mnt/4E443F99443F82AF/Dropbox/PYTHON/RRtools/results/_expert/-7603056641932544027'
p969
atp970
sS'IMG_20150730_115648_1.jpg'
p971
(S'-2619058047695931928'
(lp972
S'/mnt/4E443F99443F82AF/Dropbox/PYTHON/RRtools/results/_expert/-2619058047695931928'
p973
atp974
sS'IMG_20150730_122227.jpg'
p975
(S'-1799925710458394647'
(lp976
S'/mnt/4E443F99443F82AF/Dropbox/PYTHON/RRtools/results/_expert/-1799925710458394647'
p977
atp978
sS'20150730_131844.jpg'
p979
(S'-5862749707536599214'
(lp980
S'/mnt/4E443F99443F82AF/Dropbox/PYTHON/RRtools/results/_expert/-5862749707536599214'
p981
atp982
sS'20150730_131827.jpg'
p983
(S'-2490267288757566481'
(lp984
S'/mnt/4E443F99443F82AF/Dropbox/PYTHON/RRtools/results/_expert/-2490267288757566481'
p985
atp986
sS'IMG_0254.jpg'
p987
(S'5668412560832454642'
(lp988
S'/mnt/4E443F99443F82AF/Dropbox/PYTHON/RRtools/results/_expert/5668412560832454642'
p989
atp990
sS'20150730_132924.jpg'
p991
(S'1188318604155876340'
(lp992
S'/mnt/4E443F99443F82AF/Dropbox/PYTHON/RRtools/results/_expert/1188318604155876340'
p993
atp994
sS'im1_2.jpg'
p995
(S'-2578367927654852354'
(lp996
S'/mnt/4E443F99443F82AF/Dropbox/PYTHON/RRtools/results/_expert/-2578367927654852354'
p997
atp998
sS'IMG_0434.jpg'
p999
(S'-3655528210423819274'
(lp1000
S'/mnt/4E443F99443F82AF/Dropbox/PYTHON/RRtools/results/_expert/-3655528210423819274'
p1001
atp1002
sS'IMG_20150730_125222.jpg'
p1003
(S'4044002082227905449'
(lp1004
S'/mnt/4E443F99443F82AF/Dropbox/PYTHON/RRtools/results/_expert/4044002082227905449'
p1005
atp1006
sS'IMG_20150730_130719.jpg'
p1007
(S'412501959908078584'
(lp1008
S'/mnt/4E443F99443F82AF/Dropbox/PYTHON/RRtools/results/_expert/412501959908078584'
p1009
atp1010
sS'IMG_20150730_122506.jpg'
p1011
(S'5106872487967556089'
(lp1012
S'/mnt/4E443F99443F82AF/Dropbox/PYTHON/RRtools/results/_expert/5106872487967556089'
p1013
atp1014
sS'IMG_0368.jpg'
p1015
(S'-8127773263819753478'
(lp1016
S'/mnt/4E443F99443F82AF/Dropbox/PYTHON/RRtools/results/_expert/-8127773263819753478'
p1017
atp1018
sS'IMG_0408.jpg'
p1019
(S'3903551018170869503'
(lp1020
S'/mnt/4E443F99443F82AF/Dropbox/PYTHON/RRtools/results/_expert/3903551018170869503'
p1021
atp1022
sS'IMG_0429.jpg'
p1023
(S'7880244267879087100'
(lp1024
S'/mnt/4E443F99443F82AF/Dropbox/PYTHON/RRtools/results/_expert/7880244267879087100'
p1025
atp1026
sS'IMG_0363.jpg'
p1027
(S'6565778360981660157'
(lp1028
S'/mnt/4E443F99443F82AF/Dropbox/PYTHON/RRtools/results/_expert/6565778360981660157'
p1029
atp1030
sS'IMG_0258.jpg'
p1031
(S'2983098980440312318'
(lp1032
S'/mnt/4E443F99443F82AF/Dropbox/PYTHON/RRtools/results/_expert/2983098980440312318'
p1033
atp1034
sS'IMG_20150730_121750.jpg'
p1035
(S'-5044169928986201089'
(lp1036
S'/mnt/4E443F99443F82AF/Dropbox/PYTHON/RRtools/results/_expert/-5044169928986201089'
p1037
atp1038
s.