(dp1
S'IMG_20150730_125354.jpg'
p2
(S'-7096544690995777821'
(lp3
S'/mnt/4E443F99443F82AF/Dropbox/PYTHON/RRtools/results/set19/_expert/-7096544690995777821'
p4
atp5
sS'IMG_20150730_125402.jpg'
p6
(S'-8003537568821096667'
(lp7
S'/mnt/4E443F99443F82AF/Dropbox/PYTHON/RRtools/results/set19/_expert/-8003537568821096667'
p8
atp9
sS'IMG_20150730_125349.jpg'
p10
(S'-424346719224802355'
(lp11
S'/mnt/4E443F99443F82AF/Dropbox/PYTHON/RRtools/results/set19/_expert/-424346719224802355'
p12
atp13
sS'IMG_20150730_125408.jpg'
p14
(S'-2879004324873195281'
(lp15
S'/mnt/4E443F99443F82AF/Dropbox/PYTHON/RRtools/results/set19/_expert/-2879004324873195281'
p16
atp17
sS'IMG_20150730_125339.jpg'
p18
(S'-3107093660536779468'
(lp19
S'/mnt/4E443F99443F82AF/Dropbox/PYTHON/RRtools/results/set19/_expert/-3107093660536779468'
p20
atp21
sS'IMG_20150730_125358.jpg'
p22
(S'1578487908743153199'
(lp23
S'/mnt/4E443F99443F82AF/Dropbox/PYTHON/RRtools/results/set19/_expert/1578487908743153199'
p24
atp25
sS'IMG_20150730_125344.jpg'
p26
(S'9129918842105125212'
(lp27
S'/mnt/4E443F99443F82AF/Dropbox/PYTHON/RRtools/results/set19/_expert/9129918842105125212'
p28
atp29
sS'IMG_20150730_125411.jpg'
p30
(S'1108088067753639781'
p31
(lp32
S'/mnt/4E443F99443F82AF/Dropbox/PYTHON/RRtools/results/set19/_expert/1108088067753639781'
p33
atp34
s.