(dp1
S'IMG_20150730_115645_4.jpg'
p2
(S'3054069386162874240'
(lp3
S'/mnt/4E443F99443F82AF/Dropbox/PYTHON/RRtools/results/set16/_expert/3054069386162874240'
p4
atp5
sS'IMG_20150730_115648.jpg'
p6
(S'-8398297990186871034'
(lp7
S'/mnt/4E443F99443F82AF/Dropbox/PYTHON/RRtools/results/set16/_expert/-8398297990186871034'
p8
atp9
sS'IMG_20150730_115645.jpg'
p10
(S'-1079893365724117241'
(lp11
S'/mnt/4E443F99443F82AF/Dropbox/PYTHON/RRtools/results/set16/_expert/-1079893365724117241'
p12
atp13
sS'IMG_20150730_115649_1.jpg'
p14
(S'3823272544861518221'
(lp15
S'/mnt/4E443F99443F82AF/Dropbox/PYTHON/RRtools/results/set16/_expert/3823272544861518221'
p16
atp17
sS'IMG_20150730_115650_1.jpg'
p18
(S'7385869823155055511'
(lp19
S'/mnt/4E443F99443F82AF/Dropbox/PYTHON/RRtools/results/set16/_expert/7385869823155055511'
p20
atp21
sS'IMG_20150730_115645_3.jpg'
p22
(S'6822014654818597787'
(lp23
S'/mnt/4E443F99443F82AF/Dropbox/PYTHON/RRtools/results/set16/_expert/6822014654818597787'
p24
atp25
sS'IMG_20150730_115649_4.jpg'
p26
(S'-6195294479996963300'
(lp27
S'/mnt/4E443F99443F82AF/Dropbox/PYTHON/RRtools/results/set16/_expert/-6195294479996963300'
p28
atp29
sS'IMG_20150730_115647.jpg'
p30
(S'1359318297559640997'
(lp31
S'/mnt/4E443F99443F82AF/Dropbox/PYTHON/RRtools/results/set16/_expert/1359318297559640997'
p32
atp33
sS'IMG_20150730_115646_3.jpg'
p34
(S'839905226666111144'
(lp35
S'/mnt/4E443F99443F82AF/Dropbox/PYTHON/RRtools/results/set16/_expert/839905226666111144'
p36
atp37
sS'IMG_20150730_115646_1.jpg'
p38
(S'3279052889469868458'
(lp39
S'/mnt/4E443F99443F82AF/Dropbox/PYTHON/RRtools/results/set16/_expert/3279052889469868458'
p40
atp41
sS'IMG_20150730_115648_2.jpg'
p42
(S'-8622616251730827129'
(lp43
S'/mnt/4E443F99443F82AF/Dropbox/PYTHON/RRtools/results/set16/_expert/-8622616251730827129'
p44
atp45
sS'IMG_20150730_115649_2.jpg'
p46
(S'-8634434143040721358'
(lp47
S'/mnt/4E443F99443F82AF/Dropbox/PYTHON/RRtools/results/set16/_expert/-8634434143040721358'
p48
atp49
sS'IMG_20150730_115647_1.jpg'
p50
(S'-5845378000096821969'
(lp51
S'/mnt/4E443F99443F82AF/Dropbox/PYTHON/RRtools/results/set16/_expert/-5845378000096821969'
p52
atp53
sS'IMG_20150730_115647_2.jpg'
p54
(S'5051508351069175984'
(lp55
S'/mnt/4E443F99443F82AF/Dropbox/PYTHON/RRtools/results/set16/_expert/5051508351069175984'
p56
atp57
sS'IMG_20150730_115644.jpg'
p58
(S'7363052502618537522'
(lp59
S'/mnt/4E443F99443F82AF/Dropbox/PYTHON/RRtools/results/set16/_expert/7363052502618537522'
p60
atp61
sS'IMG_20150730_115644_2.jpg'
p62
(S'2610411530191532339'
(lp63
S'/mnt/4E443F99443F82AF/Dropbox/PYTHON/RRtools/results/set16/_expert/2610411530191532339'
p64
atp65
sS'IMG_20150730_115646_5.jpg'
p66
(S'-5395915710013062474'
(lp67
S'/mnt/4E443F99443F82AF/Dropbox/PYTHON/RRtools/results/set16/_expert/-5395915710013062474'
p68
atp69
sS'IMG_20150730_115651_1.jpg'
p70
(S'-415037397254743374'
(lp71
S'/mnt/4E443F99443F82AF/Dropbox/PYTHON/RRtools/results/set16/_expert/-415037397254743374'
p72
atp73
sS'IMG_20150730_115650_2.jpg'
p74
(S'-5057124045495599688'
(lp75
S'/mnt/4E443F99443F82AF/Dropbox/PYTHON/RRtools/results/set16/_expert/-5057124045495599688'
p76
atp77
sS'IMG_20150730_115645_1.jpg'
p78
(S'4382866991790839865'
(lp79
S'/mnt/4E443F99443F82AF/Dropbox/PYTHON/RRtools/results/set16/_expert/4382866991790839865'
p80
atp81
sS'IMG_20150730_115648_4.jpg'
p82
(S'-6183396588175068095'
(lp83
S'/mnt/4E443F99443F82AF/Dropbox/PYTHON/RRtools/results/set16/_expert/-6183396588175068095'
p84
atp85
sS'IMG_20150730_115647_5.jpg'
p86
(S'-967010673769305781'
(lp87
S'/mnt/4E443F99443F82AF/Dropbox/PYTHON/RRtools/results/set16/_expert/-967010673769305781'
p88
atp89
sS'IMG_20150730_115644_3.jpg'
p90
(S'-7393418675175364282'
(lp91
S'/mnt/4E443F99443F82AF/Dropbox/PYTHON/RRtools/results/set16/_expert/-7393418675175364282'
p92
atp93
sS'IMG_20150730_115649.jpg'
p94
(S'1605484214924025419'
(lp95
S'/mnt/4E443F99443F82AF/Dropbox/PYTHON/RRtools/results/set16/_expert/1605484214924025419'
p96
atp97
sS'IMG_20150730_115647_3.jpg'
p98
(S'-3391453517305478579'
(lp99
S'/mnt/4E443F99443F82AF/Dropbox/PYTHON/RRtools/results/set16/_expert/-3391453517305478579'
p100
atp101
sS'IMG_20150730_115645_2.jpg'
p102
(S'-3181783550548299058'
(lp103
S'/mnt/4E443F99443F82AF/Dropbox/PYTHON/RRtools/results/set16/_expert/-3181783550548299058'
p104
atp105
sS'IMG_20150730_115651_2.jpg'
p106
(S'-6404074783062055411'
p107
(lp108
S'/mnt/4E443F99443F82AF/Dropbox/PYTHON/RRtools/results/set16/_expert/-6404074783062055411'
p109
atp110
sS'IMG_20150730_115646.jpg'
p111
(S'-8644479907551255088'
(lp112
S'/mnt/4E443F99443F82AF/Dropbox/PYTHON/RRtools/results/set16/_expert/-8644479907551255088'
p113
atp114
sS'IMG_20150730_115650_4.jpg'
p115
(S'-2632729202215427322'
(lp116
S'/mnt/4E443F99443F82AF/Dropbox/PYTHON/RRtools/results/set16/_expert/-2632729202215427322'
p117
atp118
sS'IMG_20150730_115651.jpg'
p119
(S'-5299000489475228456'
(lp120
S'/mnt/4E443F99443F82AF/Dropbox/PYTHON/RRtools/results/set16/_expert/-5299000489475228456'
p121
atp122
sS'IMG_20150730_115642.jpg'
p123
(S'4923912839830780252'
(lp124
S'/mnt/4E443F99443F82AF/Dropbox/PYTHON/RRtools/results/set16/_expert/4923912839830780252'
p125
atp126
sS'IMG_20150730_115646_4.jpg'
p127
(S'4607850495097834083'
(lp128
S'/mnt/4E443F99443F82AF/Dropbox/PYTHON/RRtools/results/set16/_expert/4607850495097834083'
p129
atp130
sS'IMG_20150730_115644_1.jpg'
p131
(S'8614177735506429412'
(lp132
S'/mnt/4E443F99443F82AF/Dropbox/PYTHON/RRtools/results/set16/_expert/8614177735506429412'
p133
atp134
sS'IMG_20150730_115646_2.jpg'
p135
(S'-7603056641932544027'
(lp136
S'/mnt/4E443F99443F82AF/Dropbox/PYTHON/RRtools/results/set16/_expert/-7603056641932544027'
p137
atp138
sS'IMG_20150730_115648_1.jpg'
p139
(S'-2619058047695931928'
(lp140
S'/mnt/4E443F99443F82AF/Dropbox/PYTHON/RRtools/results/set16/_expert/-2619058047695931928'
p141
atp142
sS'IMG_20150730_115650.jpg'
p143
(S'4704765715635667853'
(lp144
S'/mnt/4E443F99443F82AF/Dropbox/PYTHON/RRtools/results/set16/_expert/4704765715635667853'
p145
atp146
sS'IMG_20150730_115648_3.jpg'
p147
(S'-179654383100171542'
(lp148
S'/mnt/4E443F99443F82AF/Dropbox/PYTHON/RRtools/results/set16/_expert/-179654383100171542'
p149
atp150
sS'IMG_20150730_115649_3.jpg'
p151
(S'1369348062070175087'
(lp152
S'/mnt/4E443F99443F82AF/Dropbox/PYTHON/RRtools/results/set16/_expert/1369348062070175087'
p153
atp154
sS'IMG_20150730_115650_3.jpg'
p155
(S'4946658159615296757'
(lp156
S'/mnt/4E443F99443F82AF/Dropbox/PYTHON/RRtools/results/set16/_expert/4946658159615296757'
p157
atp158
sS'IMG_20150730_115649_5.jpg'
p159
(S'3808503725113933033'
(lp160
S'/mnt/4E443F99443F82AF/Dropbox/PYTHON/RRtools/results/set16/_expert/3808503725113933033'
p161
atp162
sS'IMG_20150730_115647_4.jpg'
p163
(S'7475935194573348990'
(lp164
S'/mnt/4E443F99443F82AF/Dropbox/PYTHON/RRtools/results/set16/_expert/7475935194573348990'
p165
atp166
s.