(dp1
S'IMG_20150730_121804.jpg'
p2
(S'-5957309881925372765'
(lp3
S'/mnt/4E443F99443F82AF/Dropbox/PYTHON/RRtools/results/set22/_expert/-5957309881925372765'
p4
atp5
sS'IMG_20150730_121804_1.jpg'
p6
(S'4999757250857383653'
(lp7
S'/mnt/4E443F99443F82AF/Dropbox/PYTHON/RRtools/results/set22/_expert/4999757250857383653'
p8
atp9
sS'IMG_20150730_121804_2.jpg'
p10
(S'-2564877291449755478'
p11
(lp12
S'/mnt/4E443F99443F82AF/Dropbox/PYTHON/RRtools/results/set22/_expert/-2564877291449755478'
p13
atp14
sS'IMG_20150730_121801.jpg'
p15
(S'3596923679180554418'
(lp16
S'/mnt/4E443F99443F82AF/Dropbox/PYTHON/RRtools/results/set22/_expert/3596923679180554418'
p17
atp18
sS'IMG_20150730_121756.jpg'
p19
(S'-7483325592029959047'
(lp20
S'/mnt/4E443F99443F82AF/Dropbox/PYTHON/RRtools/results/set22/_expert/-7483325592029959047'
p21
atp22
sS'IMG_20150730_121750.jpg'
p23
(S'-5044169928986201089'
(lp24
S'/mnt/4E443F99443F82AF/Dropbox/PYTHON/RRtools/results/set22/_expert/-5044169928986201089'
p25
atp26
s.