(dp1
S'IMG_0428.jpg'
p2
(S'-2123553937231809271'
(lp3
S'/mnt/4E443F99443F82AF/Dropbox/PYTHON/RRtools/results/set3/_expert/-2123553937231809271'
p4
atp5
sS'IMG_0432.jpg'
p6
(S'2580308726255354224'
(lp7
S'/mnt/4E443F99443F82AF/Dropbox/PYTHON/RRtools/results/set3/_expert/2580308726255354224'
p8
atp9
sS'IMG_0430.jpg'
p10
(S'5019456389283112146'
(lp11
S'/mnt/4E443F99443F82AF/Dropbox/PYTHON/RRtools/results/set3/_expert/5019456389283112146'
p12
atp13
sS'IMG_0434.jpg'
p14
(S'-3655528210423819274'
p15
(lp16
S'/mnt/4E443F99443F82AF/Dropbox/PYTHON/RRtools/results/set3/_expert/-3655528210423819274'
p17
atp18
sS'IMG_0429.jpg'
p19
(S'7880244267879087100'
(lp20
S'/mnt/4E443F99443F82AF/Dropbox/PYTHON/RRtools/results/set3/_expert/7880244267879087100'
p21
atp22
sS'IMG_0433.jpg'
p23
(S'-7423473478855542211'
(lp24
S'/mnt/4E443F99443F82AF/Dropbox/PYTHON/RRtools/results/set3/_expert/-7423473478855542211'
p25
atp26
sS'IMG_0431.jpg'
p27
(S'-4984325816051784897'
(lp28
S'/mnt/4E443F99443F82AF/Dropbox/PYTHON/RRtools/results/set3/_expert/-4984325816051784897'
p29
atp30
s.