(dp1
S'im_1_1.jpg'
p2
(S'-2160764923645890845'
(lp3
S'/mnt/4E443F99443F82AF/Dropbox/PYTHON/RRtools/results/set26/_expert/-2160764923645890845'
p4
atp5
sS'im_1_2.jpg'
p6
(S'5389092798641662076'
p7
(lp8
S'/mnt/4E443F99443F82AF/Dropbox/PYTHON/RRtools/results/set26/_expert/5389092798641662076'
p9
atp10
s.