(dp1
S'IMG_0176.jpg'
p2
(S'7874820369958886689'
(lp3
S'/mnt/4E443F99443F82AF/Dropbox/PYTHON/RRtools/results/set1/_expert/7874820369958886689'
p4
atp5
sS'IMG_0185.jpg'
p6
(S'-9047037465877958105'
p7
(lp8
S'/mnt/4E443F99443F82AF/Dropbox/PYTHON/RRtools/results/set1/_expert/-9047037465877958105'
p9
atp10
sS'IMG_0173.jpg'
p11
(S'8107147102859165456'
(lp12
S'/mnt/4E443F99443F82AF/Dropbox/PYTHON/RRtools/results/set1/_expert/8107147102859165456'
p13
atp14
sS'_restored_IMG_0173.jpg'
p15
(S'609255982872486322'
(lp16
S'/mnt/4E443F99443F82AF/Dropbox/PYTHON/RRtools/results/set1/_expert/609255982872486322'
p17
atp18
sS'IMG_0179.jpg'
p19
(S'2982357857631262810'
(lp20
S'/mnt/4E443F99443F82AF/Dropbox/PYTHON/RRtools/results/set1/_expert/2982357857631262810'
p21
atp22
sS'IMG_0182.jpg'
p23
(S'3395900402276696316'
(lp24
S'/mnt/4E443F99443F82AF/Dropbox/PYTHON/RRtools/results/set1/_expert/3395900402276696316'
p25
atp26
sS'IMG_0184.jpg'
p27
(S'956744739232938362'
(lp28
S'/mnt/4E443F99443F82AF/Dropbox/PYTHON/RRtools/results/set1/_expert/956744739232938362'
p29
atp30
sS'IMG_0180.jpg'
p31
(S'5835112065816455070'
(lp32
S'/mnt/4E443F99443F82AF/Dropbox/PYTHON/RRtools/results/set1/_expert/5835112065816455070'
p33
atp34
s.