(dp1
S'IMG_0253.jpg'
p2
(S'2996938164904417697'
(lp3
S'/mnt/4E443F99443F82AF/Dropbox/PYTHON/RRtools/results/set5/_expert/2996938164904417697'
p4
atp5
sS'IMG_0251.jpg'
p6
(S'5436149828188175939'
(lp7
S'/mnt/4E443F99443F82AF/Dropbox/PYTHON/RRtools/results/set5/_expert/5436149828188175939'
p8
atp9
sS'IMG_0249.jpg'
p10
(S'-6106109541122121776'
(lp11
S'/mnt/4E443F99443F82AF/Dropbox/PYTHON/RRtools/results/set5/_expert/-6106109541122121776'
p12
atp13
sS'IMG_0256.jpg'
p14
(S'3229264897804696464'
p15
(lp16
S'/mnt/4E443F99443F82AF/Dropbox/PYTHON/RRtools/results/set5/_expert/3229264897804696464'
p17
atp18
sS'IMG_0254.jpg'
p19
(S'5668412560832454642'
(lp20
S'/mnt/4E443F99443F82AF/Dropbox/PYTHON/RRtools/results/set5/_expert/5668412560832454642'
p21
atp22
sS'IMG_0252.jpg'
p23
(S'8107632224132212660'
(lp24
S'/mnt/4E443F99443F82AF/Dropbox/PYTHON/RRtools/results/set5/_expert/8107632224132212660'
p25
atp26
sS'IMG_0250.jpg'
p27
(S'-3006828040410479338'
(lp28
S'/mnt/4E443F99443F82AF/Dropbox/PYTHON/RRtools/results/set5/_expert/-3006828040410479338'
p29
atp30
s.