(dp1
S'20150730_132936.jpg'
p2
(S'2080491173204037505'
(lp3
S'/mnt/4E443F99443F82AF/Dropbox/PYTHON/RRtools/results/set20/_expert/2080491173204037505'
p4
atp5
sS'IMG_20150730_130713.jpg'
p6
(S'2836872803172251026'
(lp7
S'/mnt/4E443F99443F82AF/Dropbox/PYTHON/RRtools/results/set20/_expert/2836872803172251026'
p8
atp9
sS'IMG_20150730_130729.jpg'
p10
(S'5266558701771462165'
(lp11
S'/mnt/4E443F99443F82AF/Dropbox/PYTHON/RRtools/results/set20/_expert/5266558701771462165'
p12
atp13
sS'20150730_132900.jpg'
p14
(S'-5890726763323730786'
(lp15
S'/mnt/4E443F99443F82AF/Dropbox/PYTHON/RRtools/results/set20/_expert/-5890726763323730786'
p16
atp17
sS'20150730_132904.jpg'
p18
(S'2784305836639201058'
(lp19
S'/mnt/4E443F99443F82AF/Dropbox/PYTHON/RRtools/results/set20/_expert/2784305836639201058'
p20
atp21
sS'IMG_20150730_122504.jpg'
p22
(S'2667660824683797851'
(lp23
S'/mnt/4E443F99443F82AF/Dropbox/PYTHON/RRtools/results/set20/_expert/2667660824683797851'
p24
atp25
sS'IMG_20150730_130809.jpg'
p26
(S'-7627371852762032336'
p27
(lp28
S'/mnt/4E443F99443F82AF/Dropbox/PYTHON/RRtools/results/set20/_expert/-7627371852762032336'
p29
atp30
sS'20150730_132924.jpg'
p31
(S'1188318604155876340'
(lp32
S'/mnt/4E443F99443F82AF/Dropbox/PYTHON/RRtools/results/set20/_expert/1188318604155876340'
p33
atp34
sS'IMG_20150730_130723.jpg'
p35
(S'-6929595615735330977'
(lp36
S'/mnt/4E443F99443F82AF/Dropbox/PYTHON/RRtools/results/set20/_expert/-6929595615735330977'
p37
atp38
sS'IMG_20150730_130759.jpg'
p39
(S'845230744832657084'
(lp40
S'/mnt/4E443F99443F82AF/Dropbox/PYTHON/RRtools/results/set20/_expert/845230744832657084'
p41
atp42
sS'IMG_20150730_130706.jpg'
p43
(S'-716857427831937336'
(lp44
S'/mnt/4E443F99443F82AF/Dropbox/PYTHON/RRtools/results/set20/_expert/-716857427831937336'
p45
atp46
sS'20150730_132929.jpg'
p47
(S'-3443257171283778227'
(lp48
S'/mnt/4E443F99443F82AF/Dropbox/PYTHON/RRtools/results/set20/_expert/-3443257171283778227'
p49
atp50
sS'IMG_20150730_130756.jpg'
p51
(S'3531481960556279375'
(lp52
S'/mnt/4E443F99443F82AF/Dropbox/PYTHON/RRtools/results/set20/_expert/3531481960556279375'
p53
atp54
sS'IMG_20150730_130659.jpg'
p55
(S'-8722693138065739947'
(lp56
S'/mnt/4E443F99443F82AF/Dropbox/PYTHON/RRtools/results/set20/_expert/-8722693138065739947'
p57
atp58
sS'IMG_20150730_130803.jpg'
p59
(S'3516578050859829594'
(lp60
S'/mnt/4E443F99443F82AF/Dropbox/PYTHON/RRtools/results/set20/_expert/3516578050859829594'
p61
atp62
sS'20150730_132857.jpg'
p63
(S'7959978838073436379'
(lp64
S'/mnt/4E443F99443F82AF/Dropbox/PYTHON/RRtools/results/set20/_expert/7959978838073436379'
p65
atp66
sS'IMG_20150730_122502.jpg'
p67
(S'6218160180730828509'
(lp68
S'/mnt/4E443F99443F82AF/Dropbox/PYTHON/RRtools/results/set20/_expert/6218160180730828509'
p69
atp70
sS'20150730_132917.jpg'
p71
(S'3444391673811084638'
(lp72
S'/mnt/4E443F99443F82AF/Dropbox/PYTHON/RRtools/results/set20/_expert/3444391673811084638'
p73
atp74
sS'IMG_20150730_122520.jpg'
p75
(S'-54854690500232091'
(lp76
S'/mnt/4E443F99443F82AF/Dropbox/PYTHON/RRtools/results/set20/_expert/-54854690500232091'
p77
atp78
sS'20150730_132932.jpg'
p79
(S'-2797876153379479195'
(lp80
S'/mnt/4E443F99443F82AF/Dropbox/PYTHON/RRtools/results/set20/_expert/-2797876153379479195'
p81
atp82
sS'20150730_132852.jpg'
p83
(S'-6922170693620976782'
(lp84
S'/mnt/4E443F99443F82AF/Dropbox/PYTHON/RRtools/results/set20/_expert/-6922170693620976782'
p85
atp86
sS'IMG_20150730_130654.jpg'
p87
(S'3531702823467915124'
(lp88
S'/mnt/4E443F99443F82AF/Dropbox/PYTHON/RRtools/results/set20/_expert/3531702823467915124'
p89
atp90
sS'IMG_20150730_130719.jpg'
p91
(S'412501959908078584'
(lp92
S'/mnt/4E443F99443F82AF/Dropbox/PYTHON/RRtools/results/set20/_expert/412501959908078584'
p93
atp94
sS'IMG_20150730_122506.jpg'
p95
(S'5106872487967556089'
(lp96
S'/mnt/4E443F99443F82AF/Dropbox/PYTHON/RRtools/results/set20/_expert/5106872487967556089'
p97
atp98
s.