(dp1
S'20150730_131916.jpg'
p2
(S'-4314335856664475002'
p3
(lp4
S'/mnt/4E443F99443F82AF/Dropbox/PYTHON/RRtools/results/set21/_expert/-4314335856664475002'
p5
atp6
sS'20150730_131913.jpg'
p7
(S'-4082297125556198857'
(lp8
S'/mnt/4E443F99443F82AF/Dropbox/PYTHON/RRtools/results/set21/_expert/-4082297125556198857'
p9
atp10
sS'20150730_131823.jpg'
p11
(S'2388100037569949451'
(lp12
S'/mnt/4E443F99443F82AF/Dropbox/PYTHON/RRtools/results/set21/_expert/2388100037569949451'
p13
atp14
sS'20150730_131836.jpg'
p15
(S'-9162489260768542707'
(lp16
S'/mnt/4E443F99443F82AF/Dropbox/PYTHON/RRtools/results/set21/_expert/-9162489260768542707'
p17
atp18
sS'20150730_131827.jpg'
p19
(S'-2490267288757566481'
(lp20
S'/mnt/4E443F99443F82AF/Dropbox/PYTHON/RRtools/results/set21/_expert/-2490267288757566481'
p21
atp22
sS'20150730_131915.jpg'
p23
(S'8128610011730180017'
(lp24
S'/mnt/4E443F99443F82AF/Dropbox/PYTHON/RRtools/results/set21/_expert/8128610011730180017'
p25
atp26
sS'20150730_131844.jpg'
p27
(S'-5862749707536599214'
(lp28
S'/mnt/4E443F99443F82AF/Dropbox/PYTHON/RRtools/results/set21/_expert/-5862749707536599214'
p29
atp30
sS'20150730_131839.jpg'
p31
(S'-6970381149892647914'
(lp32
S'/mnt/4E443F99443F82AF/Dropbox/PYTHON/RRtools/results/set21/_expert/-6970381149892647914'
p33
atp34
sS'20150730_131816.jpg'
p35
(S'571836277146188087'
(lp36
S'/mnt/4E443F99443F82AF/Dropbox/PYTHON/RRtools/results/set21/_expert/571836277146188087'
p37
atp38
sS'20150730_131834.jpg'
p39
(S'6844851148377248687'
(lp40
S'/mnt/4E443F99443F82AF/Dropbox/PYTHON/RRtools/results/set21/_expert/6844851148377248687'
p41
atp42
s.