(dp1
S'IMG_0420.jpg'
p2
(S'-6987136444035740735'
(lp3
S'/mnt/4E443F99443F82AF/Dropbox/PYTHON/RRtools/results/set4/_expert/-6987136444035740735'
p4
atp5
sS'IMG_0411.jpg'
p6
(S'7002856518866511653'
(lp7
S'/mnt/4E443F99443F82AF/Dropbox/PYTHON/RRtools/results/set4/_expert/7002856518866511653'
p8
atp9
sS'IMG_0413.jpg'
p10
(S'4548932036043168359'
(lp11
S'/mnt/4E443F99443F82AF/Dropbox/PYTHON/RRtools/results/set4/_expert/4548932036043168359'
p12
atp13
sS'IMG_0425.jpg'
p14
(S'-6755065712671464272'
(lp15
S'/mnt/4E443F99443F82AF/Dropbox/PYTHON/RRtools/results/set4/_expert/-6755065712671464272'
p16
atp17
sS'IMG_0419.jpg'
p18
(S'-7647222281207624259'
(lp19
S'/mnt/4E443F99443F82AF/Dropbox/PYTHON/RRtools/results/set4/_expert/-7647222281207624259'
p20
atp21
sS'IMG_0418.jpg'
p22
(S'2356559923903272176'
(lp23
S'/mnt/4E443F99443F82AF/Dropbox/PYTHON/RRtools/results/set4/_expert/2356559923903272176'
p24
atp25
sS'IMG_0427.jpg'
p26
(S'-4315662048107704046'
p27
(lp28
S'/mnt/4E443F99443F82AF/Dropbox/PYTHON/RRtools/results/set4/_expert/-4315662048107704046'
p29
atp30
sS'IMG_0421.jpg'
p31
(S'-1876442384551945004'
(lp32
S'/mnt/4E443F99443F82AF/Dropbox/PYTHON/RRtools/results/set4/_expert/-1876442384551945004'
p33
atp34
sS'IMG_0423.jpg'
p35
(S'5455841424614914614'
(lp36
S'/mnt/4E443F99443F82AF/Dropbox/PYTHON/RRtools/results/set4/_expert/5455841424614914614'
p37
atp38
sS'IMG_0412.jpg'
p39
(S'-3894029832299486278'
(lp40
S'/mnt/4E443F99443F82AF/Dropbox/PYTHON/RRtools/results/set4/_expert/-3894029832299486278'
p41
atp42
sS'IMG_0424.jpg'
p43
(S'1687896155927191165'
(lp44
S'/mnt/4E443F99443F82AF/Dropbox/PYTHON/RRtools/results/set4/_expert/1687896155927191165'
p45
atp46
sS'IMG_0426.jpg'
p47
(S'4127299820522951551'
(lp48
S'/mnt/4E443F99443F82AF/Dropbox/PYTHON/RRtools/results/set4/_expert/4127299820522951551'
p49
atp50
s.