(dp1
S'IMG_0389.jpg'
p2
(S'7230681596168684385'
(lp3
S'/mnt/4E443F99443F82AF/Dropbox/PYTHON/RRtools/results/set13/_expert/7230681596168684385'
p4
atp5
sS'IMG_0386.jpg'
p6
(S'2338219083841060250'
(lp7
S'/mnt/4E443F99443F82AF/Dropbox/PYTHON/RRtools/results/set13/_expert/2338219083841060250'
p8
atp9
sS'IMG_0390.jpg'
p10
(S'6324413841376415755'
p11
(lp12
S'/mnt/4E443F99443F82AF/Dropbox/PYTHON/RRtools/results/set13/_expert/6324413841376415755'
p13
atp14
sS'IMG_0388.jpg'
p15
(S'-6105624419593073804'
(lp16
S'/mnt/4E443F99443F82AF/Dropbox/PYTHON/RRtools/results/set13/_expert/-6105624419593073804'
p17
atp18
sS'IMG_0387.jpg'
p19
(S'-7665563121269835961'
(lp20
S'/mnt/4E443F99443F82AF/Dropbox/PYTHON/RRtools/results/set13/_expert/-7665563121269835961'
p21
atp22
s.