(dp1
S'20150730_110645.jpg'
p2
(S'3877929266618061024'
(lp3
S'/mnt/4E443F99443F82AF/Dropbox/PYTHON/RRtools/results/set17/_expert/3877929266618061024'
p4
atp5
sS'20150730_110648.jpg'
p6
(S'-8376658696195596287'
(lp7
S'/mnt/4E443F99443F82AF/Dropbox/PYTHON/RRtools/results/set17/_expert/-8376658696195596287'
p8
atp9
sS'20150730_110711.jpg'
p10
(S'-2794961827705963742'
(lp11
S'/mnt/4E443F99443F82AF/Dropbox/PYTHON/RRtools/results/set17/_expert/-2794961827705963742'
p12
atp13
sS'20150730_110530.jpg'
p14
(S'8962979081491376699'
(lp15
S'/mnt/4E443F99443F82AF/Dropbox/PYTHON/RRtools/results/set17/_expert/8962979081491376699'
p16
atp17
sS'20150730_110548.jpg'
p18
(S'-1522046388927926282'
(lp19
S'/mnt/4E443F99443F82AF/Dropbox/PYTHON/RRtools/results/set17/_expert/-1522046388927926282'
p20
atp21
sS'20150730_110539.jpg'
p22
(S'-8604756031875180218'
(lp23
S'/mnt/4E443F99443F82AF/Dropbox/PYTHON/RRtools/results/set17/_expert/-8604756031875180218'
p24
atp25
sS'20150730_110657.jpg'
p26
(S'734966940123139393'
(lp27
S'/mnt/4E443F99443F82AF/Dropbox/PYTHON/RRtools/results/set17/_expert/734966940123139393'
p28
atp29
sS'20150730_110705.jpg'
p30
(S'-8362390997945058519'
(lp31
S'/mnt/4E443F99443F82AF/Dropbox/PYTHON/RRtools/results/set17/_expert/-8362390997945058519'
p32
atp33
sS'20150730_110714.jpg'
p34
(S'-6359556369977102965'
(lp35
S'/mnt/4E443F99443F82AF/Dropbox/PYTHON/RRtools/results/set17/_expert/-6359556369977102965'
p36
atp37
sS'20150730_110545.jpg'
p38
(S'-7279614676622438641'
(lp39
S'/mnt/4E443F99443F82AF/Dropbox/PYTHON/RRtools/results/set17/_expert/-7279614676622438641'
p40
atp41
sS'20150730_110552.jpg'
p42
(S'2055503760512376783'
(lp43
S'/mnt/4E443F99443F82AF/Dropbox/PYTHON/RRtools/results/set17/_expert/2055503760512376783'
p44
atp45
sS'20150730_110656.jpg'
p46
(S'9177912808465794164'
(lp47
S'/mnt/4E443F99443F82AF/Dropbox/PYTHON/RRtools/results/set17/_expert/9177912808465794164'
p48
atp49
sS'20150730_110405.jpg'
p50
(S'-6399928593982395274'
(lp51
S'/mnt/4E443F99443F82AF/Dropbox/PYTHON/RRtools/results/set17/_expert/-6399928593982395274'
p52
atp53
sS'20150730_110650.jpg'
p54
(S'6753485964961621178'
(lp55
S'/mnt/4E443F99443F82AF/Dropbox/PYTHON/RRtools/results/set17/_expert/6753485964961621178'
p56
atp57
sS'20150730_110659.jpg'
p58
(S'2107189369998381679'
(lp59
S'/mnt/4E443F99443F82AF/Dropbox/PYTHON/RRtools/results/set17/_expert/2107189369998381679'
p60
atp61
sS'20150730_110717.jpg'
p62
(S'-9030782764385137348'
p63
(lp64
S'/mnt/4E443F99443F82AF/Dropbox/PYTHON/RRtools/results/set17/_expert/-9030782764385137348'
p65
atp66
sS'20150730_110706.jpg'
p67
(S'-2358624792886162210'
(lp68
S'/mnt/4E443F99443F82AF/Dropbox/PYTHON/RRtools/results/set17/_expert/-2358624792886162210'
p69
atp70
s.