(dp1
S'IMG_20150730_134225.jpg'
p2
(S'4270323839705596288'
(lp3
S'/mnt/4E443F99443F82AF/Dropbox/PYTHON/RRtools/results/set18/_expert/4270323839705596288'
p4
atp5
sS'IMG_20150730_134219.jpg'
p6
(S'-6123677903345542975'
(lp7
S'/mnt/4E443F99443F82AF/Dropbox/PYTHON/RRtools/results/set18/_expert/-6123677903345542975'
p8
atp9
sS'IMG_20150730_115254.jpg'
p10
(S'4348645287419056773'
(lp11
S'/mnt/4E443F99443F82AF/Dropbox/PYTHON/RRtools/results/set18/_expert/4348645287419056773'
p12
atp13
sS'IMG_20150730_105753.jpg'
p14
(S'6675658400574424614'
(lp15
S'/mnt/4E443F99443F82AF/Dropbox/PYTHON/RRtools/results/set18/_expert/6675658400574424614'
p16
atp17
sS'IMG_20150730_131454.jpg'
p18
(S'-6402145633209648887'
(lp19
S'/mnt/4E443F99443F82AF/Dropbox/PYTHON/RRtools/results/set18/_expert/-6402145633209648887'
p20
atp21
sS'IMG_20150730_105800.jpg'
p22
(S'-2907350254916058131'
(lp23
S'/mnt/4E443F99443F82AF/Dropbox/PYTHON/RRtools/results/set18/_expert/-2907350254916058131'
p24
atp25
sS'IMG_20150730_105626.jpg'
p26
(S'7568556092175634895'
(lp27
S'/mnt/4E443F99443F82AF/Dropbox/PYTHON/RRtools/results/set18/_expert/7568556092175634895'
p28
atp29
sS'IMG_20150730_105748.jpg'
p30
(S'-6471166131511394030'
(lp31
S'/mnt/4E443F99443F82AF/Dropbox/PYTHON/RRtools/results/set18/_expert/-6471166131511394030'
p32
atp33
sS'IMG_20150730_134235.jpg'
p34
(S'-7272159530884703213'
(lp35
S'/mnt/4E443F99443F82AF/Dropbox/PYTHON/RRtools/results/set18/_expert/-7272159530884703213'
p36
atp37
sS'IMG_20150730_131444.jpg'
p38
(S'4901588113984981586'
(lp39
S'/mnt/4E443F99443F82AF/Dropbox/PYTHON/RRtools/results/set18/_expert/4901588113984981586'
p40
atp41
sS'IMG_20150730_115301.jpg'
p42
(S'-503627787116877194'
(lp43
S'/mnt/4E443F99443F82AF/Dropbox/PYTHON/RRtools/results/set18/_expert/-503627787116877194'
p44
atp45
sS'IMG_20150730_134231.jpg'
p46
(S'2499599943117916983'
(lp47
S'/mnt/4E443F99443F82AF/Dropbox/PYTHON/RRtools/results/set18/_expert/2499599943117916983'
p48
atp49
sS'IMG_20150730_105632.jpg'
p50
(S'-4438044741159217992'
(lp51
S'/mnt/4E443F99443F82AF/Dropbox/PYTHON/RRtools/results/set18/_expert/-4438044741159217992'
p52
atp53
sS'IMG_20150730_105655.jpg'
p54
(S'-5331677147159733415'
(lp55
S'/mnt/4E443F99443F82AF/Dropbox/PYTHON/RRtools/results/set18/_expert/-5331677147159733415'
p56
atp57
sS'IMG_20150730_134254.jpg'
p58
(S'1871786360292947356'
(lp59
S'/mnt/4E443F99443F82AF/Dropbox/PYTHON/RRtools/results/set18/_expert/1871786360292947356'
p60
atp61
sS'IMG_20150730_115251.jpg'
p62
(S'7913239829434195260'
(lp63
S'/mnt/4E443F99443F82AF/Dropbox/PYTHON/RRtools/results/set18/_expert/7913239829434195260'
p64
atp65
sS'IMG_20150730_134300.jpg'
p66
(S'-1033833099122831330'
p67
(lp68
S'/mnt/4E443F99443F82AF/Dropbox/PYTHON/RRtools/results/set18/_expert/-1033833099122831330'
p69
atp70
s.