(dp1
S'IMG_0267.jpg'
p2
(S'8320220456823932728'
(lp3
S'/mnt/4E443F99443F82AF/Dropbox/PYTHON/RRtools/results/set7/_expert/8320220456823932728'
p4
atp5
sS'IMG_0271.jpg'
p6
(S'8763084383147126761'
(lp7
S'/mnt/4E443F99443F82AF/Dropbox/PYTHON/RRtools/results/set7/_expert/8763084383147126761'
p8
atp9
sS'IMG_0273.jpg'
p10
(S'-7244448027278666869'
p11
(lp12
S'/mnt/4E443F99443F82AF/Dropbox/PYTHON/RRtools/results/set7/_expert/-7244448027278666869'
p13
atp14
sS'IMG_0270.jpg'
p15
(S'320138514804472028'
(lp16
S'/mnt/4E443F99443F82AF/Dropbox/PYTHON/RRtools/results/set7/_expert/320138514804472028'
p17
atp18
sS'IMG_0269.jpg'
p19
(S'5881048793812175062'
(lp20
S'/mnt/4E443F99443F82AF/Dropbox/PYTHON/RRtools/results/set7/_expert/5881048793812175062'
p21
atp22
s.